ARM GAS  C:\Users\Toreckk\AppData\Local\Temp\cc4CLsqf.s 			page 1


   1              		.syntax unified
   2              		.cpu cortex-m0
   3              		.fpu softvfp
   4              		.eabi_attribute 20, 1
   5              		.eabi_attribute 21, 1
   6              		.eabi_attribute 23, 3
   7              		.eabi_attribute 24, 1
   8              		.eabi_attribute 25, 1
   9              		.eabi_attribute 26, 1
  10              		.eabi_attribute 30, 1
  11              		.eabi_attribute 34, 0
  12              		.eabi_attribute 18, 4
  13              		.thumb
  14              		.syntax unified
  15              		.file	"cyfitter_cfg.c"
  16              		.text
  17              	.Ltext0:
  18              		.cfi_sections	.debug_frame
  19              		.section	.text.cfg_write_bytes32,"ax",%progbits
  20              		.align	2
  21              		.code	16
  22              		.thumb_func
  23              		.type	cfg_write_bytes32, %function
  24              	cfg_write_bytes32:
  25              	.LFB5:
  26              		.file 1 "Generated_Source\\PSoC4\\cyfitter_cfg.c"
   1:Generated_Source\PSoC4/cyfitter_cfg.c **** 
   2:Generated_Source\PSoC4/cyfitter_cfg.c **** /*******************************************************************************
   3:Generated_Source\PSoC4/cyfitter_cfg.c **** * File Name: cyfitter_cfg.c
   4:Generated_Source\PSoC4/cyfitter_cfg.c **** * 
   5:Generated_Source\PSoC4/cyfitter_cfg.c **** * PSoC Creator  4.2
   6:Generated_Source\PSoC4/cyfitter_cfg.c **** *
   7:Generated_Source\PSoC4/cyfitter_cfg.c **** * Description:
   8:Generated_Source\PSoC4/cyfitter_cfg.c **** * This file contains device initialization code.
   9:Generated_Source\PSoC4/cyfitter_cfg.c **** * Except for the user defined sections in CyClockStartupError(), this file should not be modified.
  10:Generated_Source\PSoC4/cyfitter_cfg.c **** * This file is automatically generated by PSoC Creator.
  11:Generated_Source\PSoC4/cyfitter_cfg.c **** *
  12:Generated_Source\PSoC4/cyfitter_cfg.c **** ********************************************************************************
  13:Generated_Source\PSoC4/cyfitter_cfg.c **** * Copyright (c) 2007-2018 Cypress Semiconductor.  All rights reserved.
  14:Generated_Source\PSoC4/cyfitter_cfg.c **** * You may use this file only in accordance with the license, terms, conditions, 
  15:Generated_Source\PSoC4/cyfitter_cfg.c **** * disclaimers, and limitations in the end user license agreement accompanying 
  16:Generated_Source\PSoC4/cyfitter_cfg.c **** * the software package with which this file was provided.
  17:Generated_Source\PSoC4/cyfitter_cfg.c **** ********************************************************************************/
  18:Generated_Source\PSoC4/cyfitter_cfg.c **** 
  19:Generated_Source\PSoC4/cyfitter_cfg.c **** #include <string.h>
  20:Generated_Source\PSoC4/cyfitter_cfg.c **** #include "cytypes.h"
  21:Generated_Source\PSoC4/cyfitter_cfg.c **** #include "cydevice_trm.h"
  22:Generated_Source\PSoC4/cyfitter_cfg.c **** #include "cyfitter.h"
  23:Generated_Source\PSoC4/cyfitter_cfg.c **** #include "CyLib.h"
  24:Generated_Source\PSoC4/cyfitter_cfg.c **** #include "CyLFClk.h"
  25:Generated_Source\PSoC4/cyfitter_cfg.c **** #include "cyfitter_cfg.h"
  26:Generated_Source\PSoC4/cyfitter_cfg.c **** #include "cyapicallbacks.h"
  27:Generated_Source\PSoC4/cyfitter_cfg.c **** 
  28:Generated_Source\PSoC4/cyfitter_cfg.c **** 
  29:Generated_Source\PSoC4/cyfitter_cfg.c **** #if defined(__GNUC__) || defined(__ARMCC_VERSION)
  30:Generated_Source\PSoC4/cyfitter_cfg.c ****     #define CYPACKED 
  31:Generated_Source\PSoC4/cyfitter_cfg.c ****     #define CYPACKED_ATTR __attribute__ ((packed))
ARM GAS  C:\Users\Toreckk\AppData\Local\Temp\cc4CLsqf.s 			page 2


  32:Generated_Source\PSoC4/cyfitter_cfg.c ****     #define CYALIGNED __attribute__ ((aligned))
  33:Generated_Source\PSoC4/cyfitter_cfg.c ****     #define CY_CFG_UNUSED __attribute__ ((unused))
  34:Generated_Source\PSoC4/cyfitter_cfg.c ****     #ifndef CY_CFG_SECTION
  35:Generated_Source\PSoC4/cyfitter_cfg.c ****         #define CY_CFG_SECTION __attribute__ ((section(".psocinit")))
  36:Generated_Source\PSoC4/cyfitter_cfg.c ****     #endif
  37:Generated_Source\PSoC4/cyfitter_cfg.c ****     
  38:Generated_Source\PSoC4/cyfitter_cfg.c ****     #if defined(__ARMCC_VERSION)
  39:Generated_Source\PSoC4/cyfitter_cfg.c ****         #define CY_CFG_MEMORY_BARRIER() __memory_changed()
  40:Generated_Source\PSoC4/cyfitter_cfg.c ****     #else
  41:Generated_Source\PSoC4/cyfitter_cfg.c ****         #define CY_CFG_MEMORY_BARRIER() __sync_synchronize()
  42:Generated_Source\PSoC4/cyfitter_cfg.c ****     #endif
  43:Generated_Source\PSoC4/cyfitter_cfg.c ****     
  44:Generated_Source\PSoC4/cyfitter_cfg.c **** #elif defined(__ICCARM__)
  45:Generated_Source\PSoC4/cyfitter_cfg.c ****     #include <intrinsics.h>
  46:Generated_Source\PSoC4/cyfitter_cfg.c **** 
  47:Generated_Source\PSoC4/cyfitter_cfg.c ****     #define CYPACKED __packed
  48:Generated_Source\PSoC4/cyfitter_cfg.c ****     #define CYPACKED_ATTR 
  49:Generated_Source\PSoC4/cyfitter_cfg.c ****     #define CYALIGNED _Pragma("data_alignment=4")
  50:Generated_Source\PSoC4/cyfitter_cfg.c ****     #define CY_CFG_UNUSED _Pragma("diag_suppress=Pe177")
  51:Generated_Source\PSoC4/cyfitter_cfg.c ****     #define CY_CFG_SECTION _Pragma("location=\".psocinit\"")
  52:Generated_Source\PSoC4/cyfitter_cfg.c ****     
  53:Generated_Source\PSoC4/cyfitter_cfg.c ****     #define CY_CFG_MEMORY_BARRIER() __DMB()
  54:Generated_Source\PSoC4/cyfitter_cfg.c ****     
  55:Generated_Source\PSoC4/cyfitter_cfg.c **** #else
  56:Generated_Source\PSoC4/cyfitter_cfg.c ****     #error Unsupported toolchain
  57:Generated_Source\PSoC4/cyfitter_cfg.c **** #endif
  58:Generated_Source\PSoC4/cyfitter_cfg.c **** 
  59:Generated_Source\PSoC4/cyfitter_cfg.c **** #ifndef CYCODE
  60:Generated_Source\PSoC4/cyfitter_cfg.c ****     #define CYCODE
  61:Generated_Source\PSoC4/cyfitter_cfg.c **** #endif
  62:Generated_Source\PSoC4/cyfitter_cfg.c **** #ifndef CYDATA
  63:Generated_Source\PSoC4/cyfitter_cfg.c ****     #define CYDATA
  64:Generated_Source\PSoC4/cyfitter_cfg.c **** #endif
  65:Generated_Source\PSoC4/cyfitter_cfg.c **** #ifndef CYFAR
  66:Generated_Source\PSoC4/cyfitter_cfg.c ****     #define CYFAR
  67:Generated_Source\PSoC4/cyfitter_cfg.c **** #endif
  68:Generated_Source\PSoC4/cyfitter_cfg.c **** #ifndef CYXDATA
  69:Generated_Source\PSoC4/cyfitter_cfg.c ****     #define CYXDATA
  70:Generated_Source\PSoC4/cyfitter_cfg.c **** #endif
  71:Generated_Source\PSoC4/cyfitter_cfg.c **** 
  72:Generated_Source\PSoC4/cyfitter_cfg.c **** 
  73:Generated_Source\PSoC4/cyfitter_cfg.c **** CY_CFG_UNUSED
  74:Generated_Source\PSoC4/cyfitter_cfg.c **** static void CYMEMZERO(void *s, size_t n);
  75:Generated_Source\PSoC4/cyfitter_cfg.c **** CY_CFG_UNUSED
  76:Generated_Source\PSoC4/cyfitter_cfg.c **** static void CYMEMZERO(void *s, size_t n)
  77:Generated_Source\PSoC4/cyfitter_cfg.c **** {
  78:Generated_Source\PSoC4/cyfitter_cfg.c **** 	(void)memset(s, 0, n);
  79:Generated_Source\PSoC4/cyfitter_cfg.c **** }
  80:Generated_Source\PSoC4/cyfitter_cfg.c **** CY_CFG_UNUSED
  81:Generated_Source\PSoC4/cyfitter_cfg.c **** static void CYCONFIGCPY(void *dest, const void *src, size_t n);
  82:Generated_Source\PSoC4/cyfitter_cfg.c **** CY_CFG_UNUSED
  83:Generated_Source\PSoC4/cyfitter_cfg.c **** static void CYCONFIGCPY(void *dest, const void *src, size_t n)
  84:Generated_Source\PSoC4/cyfitter_cfg.c **** {
  85:Generated_Source\PSoC4/cyfitter_cfg.c **** 	(void)memcpy(dest, src, n);
  86:Generated_Source\PSoC4/cyfitter_cfg.c **** }
  87:Generated_Source\PSoC4/cyfitter_cfg.c **** CY_CFG_UNUSED
  88:Generated_Source\PSoC4/cyfitter_cfg.c **** static void CYCONFIGCPYCODE(void *dest, const void *src, size_t n);
ARM GAS  C:\Users\Toreckk\AppData\Local\Temp\cc4CLsqf.s 			page 3


  89:Generated_Source\PSoC4/cyfitter_cfg.c **** CY_CFG_UNUSED
  90:Generated_Source\PSoC4/cyfitter_cfg.c **** static void CYCONFIGCPYCODE(void *dest, const void *src, size_t n)
  91:Generated_Source\PSoC4/cyfitter_cfg.c **** {
  92:Generated_Source\PSoC4/cyfitter_cfg.c **** 	(void)memcpy(dest, src, n);
  93:Generated_Source\PSoC4/cyfitter_cfg.c **** }
  94:Generated_Source\PSoC4/cyfitter_cfg.c **** 
  95:Generated_Source\PSoC4/cyfitter_cfg.c **** 
  96:Generated_Source\PSoC4/cyfitter_cfg.c **** 
  97:Generated_Source\PSoC4/cyfitter_cfg.c **** 
  98:Generated_Source\PSoC4/cyfitter_cfg.c **** /* Clock startup error codes                                                   */
  99:Generated_Source\PSoC4/cyfitter_cfg.c **** #define CYCLOCKSTART_NO_ERROR    0u
 100:Generated_Source\PSoC4/cyfitter_cfg.c **** #define CYCLOCKSTART_XTAL_ERROR  1u
 101:Generated_Source\PSoC4/cyfitter_cfg.c **** #define CYCLOCKSTART_32KHZ_ERROR 2u
 102:Generated_Source\PSoC4/cyfitter_cfg.c **** #define CYCLOCKSTART_PLL_ERROR   3u
 103:Generated_Source\PSoC4/cyfitter_cfg.c **** #define CYCLOCKSTART_FLL_ERROR   4u
 104:Generated_Source\PSoC4/cyfitter_cfg.c **** #define CYCLOCKSTART_WCO_ERROR   5u
 105:Generated_Source\PSoC4/cyfitter_cfg.c **** 
 106:Generated_Source\PSoC4/cyfitter_cfg.c **** 
 107:Generated_Source\PSoC4/cyfitter_cfg.c **** #ifdef CY_NEED_CYCLOCKSTARTUPERROR
 108:Generated_Source\PSoC4/cyfitter_cfg.c **** /*******************************************************************************
 109:Generated_Source\PSoC4/cyfitter_cfg.c **** * Function Name: CyClockStartupError
 110:Generated_Source\PSoC4/cyfitter_cfg.c **** ********************************************************************************
 111:Generated_Source\PSoC4/cyfitter_cfg.c **** * Summary:
 112:Generated_Source\PSoC4/cyfitter_cfg.c **** *  If an error is encountered during clock configuration (crystal startup error,
 113:Generated_Source\PSoC4/cyfitter_cfg.c **** *  PLL lock error, etc.), the system will end up here.  Unless reimplemented by
 114:Generated_Source\PSoC4/cyfitter_cfg.c **** *  the customer, this function will stop in an infinite loop.
 115:Generated_Source\PSoC4/cyfitter_cfg.c **** *
 116:Generated_Source\PSoC4/cyfitter_cfg.c **** * Parameters:
 117:Generated_Source\PSoC4/cyfitter_cfg.c **** *   void
 118:Generated_Source\PSoC4/cyfitter_cfg.c **** *
 119:Generated_Source\PSoC4/cyfitter_cfg.c **** * Return:
 120:Generated_Source\PSoC4/cyfitter_cfg.c **** *   void
 121:Generated_Source\PSoC4/cyfitter_cfg.c **** *
 122:Generated_Source\PSoC4/cyfitter_cfg.c **** *******************************************************************************/
 123:Generated_Source\PSoC4/cyfitter_cfg.c **** CY_CFG_UNUSED
 124:Generated_Source\PSoC4/cyfitter_cfg.c **** static void CyClockStartupError(uint8 errorCode);
 125:Generated_Source\PSoC4/cyfitter_cfg.c **** CY_CFG_UNUSED
 126:Generated_Source\PSoC4/cyfitter_cfg.c **** static void CyClockStartupError(uint8 errorCode)
 127:Generated_Source\PSoC4/cyfitter_cfg.c **** {
 128:Generated_Source\PSoC4/cyfitter_cfg.c ****     /* To remove the compiler warning if errorCode not used.                */
 129:Generated_Source\PSoC4/cyfitter_cfg.c ****     errorCode = errorCode;
 130:Generated_Source\PSoC4/cyfitter_cfg.c **** 
 131:Generated_Source\PSoC4/cyfitter_cfg.c ****     /* If we have a clock startup error (bad MHz crystal, PLL lock, etc.),  */
 132:Generated_Source\PSoC4/cyfitter_cfg.c ****     /* we will end up here to allow the customer to implement something to  */
 133:Generated_Source\PSoC4/cyfitter_cfg.c ****     /* deal with the clock condition.                                       */
 134:Generated_Source\PSoC4/cyfitter_cfg.c **** 
 135:Generated_Source\PSoC4/cyfitter_cfg.c **** #ifdef CY_CFG_CLOCK_STARTUP_ERROR_CALLBACK
 136:Generated_Source\PSoC4/cyfitter_cfg.c ****     CY_CFG_Clock_Startup_ErrorCallback();
 137:Generated_Source\PSoC4/cyfitter_cfg.c **** #else
 138:Generated_Source\PSoC4/cyfitter_cfg.c ****     /*  If not using CY_CFG_CLOCK_STARTUP_ERROR_CALLBACK, place your clock startup code here. */
 139:Generated_Source\PSoC4/cyfitter_cfg.c ****     /* `#START CyClockStartupError` */
 140:Generated_Source\PSoC4/cyfitter_cfg.c **** 
 141:Generated_Source\PSoC4/cyfitter_cfg.c **** 
 142:Generated_Source\PSoC4/cyfitter_cfg.c **** 
 143:Generated_Source\PSoC4/cyfitter_cfg.c ****     /* `#END` */
 144:Generated_Source\PSoC4/cyfitter_cfg.c **** 
 145:Generated_Source\PSoC4/cyfitter_cfg.c ****     while(1) {}
ARM GAS  C:\Users\Toreckk\AppData\Local\Temp\cc4CLsqf.s 			page 4


 146:Generated_Source\PSoC4/cyfitter_cfg.c **** #endif /* CY_CFG_CLOCK_STARTUP_ERROR_CALLBACK */
 147:Generated_Source\PSoC4/cyfitter_cfg.c **** }
 148:Generated_Source\PSoC4/cyfitter_cfg.c **** #endif
 149:Generated_Source\PSoC4/cyfitter_cfg.c **** 
 150:Generated_Source\PSoC4/cyfitter_cfg.c **** #define CY_CFG_BASE_ADDR_COUNT 10u
 151:Generated_Source\PSoC4/cyfitter_cfg.c **** CYPACKED typedef struct
 152:Generated_Source\PSoC4/cyfitter_cfg.c **** {
 153:Generated_Source\PSoC4/cyfitter_cfg.c **** 	uint8 offset;
 154:Generated_Source\PSoC4/cyfitter_cfg.c **** 	uint8 value;
 155:Generated_Source\PSoC4/cyfitter_cfg.c **** } CYPACKED_ATTR cy_cfg_addrvalue_t;
 156:Generated_Source\PSoC4/cyfitter_cfg.c **** 
 157:Generated_Source\PSoC4/cyfitter_cfg.c **** 
 158:Generated_Source\PSoC4/cyfitter_cfg.c **** 
 159:Generated_Source\PSoC4/cyfitter_cfg.c **** /*******************************************************************************
 160:Generated_Source\PSoC4/cyfitter_cfg.c **** * Function Name: cfg_write_bytes32
 161:Generated_Source\PSoC4/cyfitter_cfg.c **** ********************************************************************************
 162:Generated_Source\PSoC4/cyfitter_cfg.c **** * Summary:
 163:Generated_Source\PSoC4/cyfitter_cfg.c **** *  This function is used for setting up the chip configuration areas that
 164:Generated_Source\PSoC4/cyfitter_cfg.c **** *  contain relatively sparse data.
 165:Generated_Source\PSoC4/cyfitter_cfg.c **** *
 166:Generated_Source\PSoC4/cyfitter_cfg.c **** * Parameters:
 167:Generated_Source\PSoC4/cyfitter_cfg.c **** *   void
 168:Generated_Source\PSoC4/cyfitter_cfg.c **** *
 169:Generated_Source\PSoC4/cyfitter_cfg.c **** * Return:
 170:Generated_Source\PSoC4/cyfitter_cfg.c **** *   void
 171:Generated_Source\PSoC4/cyfitter_cfg.c **** *
 172:Generated_Source\PSoC4/cyfitter_cfg.c **** *******************************************************************************/
 173:Generated_Source\PSoC4/cyfitter_cfg.c **** static void cfg_write_bytes32(const uint32 addr_table[], const cy_cfg_addrvalue_t data_table[]);
 174:Generated_Source\PSoC4/cyfitter_cfg.c **** static void cfg_write_bytes32(const uint32 addr_table[], const cy_cfg_addrvalue_t data_table[])
 175:Generated_Source\PSoC4/cyfitter_cfg.c **** {
  27              		.loc 1 175 0
  28              		.cfi_startproc
  29              		@ args = 0, pretend = 0, frame = 0
  30              		@ frame_needed = 0, uses_anonymous_args = 0
  31              	.LVL0:
  32 0000 F0B5     		push	{r4, r5, r6, r7, lr}
  33              		.cfi_def_cfa_offset 20
  34              		.cfi_offset 4, -20
  35              		.cfi_offset 5, -16
  36              		.cfi_offset 6, -12
  37              		.cfi_offset 7, -8
  38              		.cfi_offset 14, -4
  39              	.LVL1:
 176:Generated_Source\PSoC4/cyfitter_cfg.c **** 	/* For 32-bit little-endian architectures */
 177:Generated_Source\PSoC4/cyfitter_cfg.c **** 	uint32 i, j = 0u;
  40              		.loc 1 177 0
  41 0002 0025     		movs	r5, #0
 178:Generated_Source\PSoC4/cyfitter_cfg.c **** 	for (i = 0u; i < CY_CFG_BASE_ADDR_COUNT; i++)
  42              		.loc 1 178 0
  43 0004 0027     		movs	r7, #0
  44 0006 11E0     		b	.L2
  45              	.LVL2:
  46              	.L5:
  47              	.LBB2:
 179:Generated_Source\PSoC4/cyfitter_cfg.c **** 	{
 180:Generated_Source\PSoC4/cyfitter_cfg.c **** 		uint32 baseAddr = addr_table[i];
  48              		.loc 1 180 0
ARM GAS  C:\Users\Toreckk\AppData\Local\Temp\cc4CLsqf.s 			page 5


  49 0008 BB00     		lsls	r3, r7, #2
  50 000a C658     		ldr	r6, [r0, r3]
  51              	.LVL3:
 181:Generated_Source\PSoC4/cyfitter_cfg.c **** 		uint8 count = (uint8)baseAddr;
  52              		.loc 1 181 0
  53 000c F3B2     		uxtb	r3, r6
  54              	.LVL4:
 182:Generated_Source\PSoC4/cyfitter_cfg.c **** 		baseAddr &= 0xFFFFFF00u;
  55              		.loc 1 182 0
  56 000e FF22     		movs	r2, #255
  57 0010 9643     		bics	r6, r2
  58              	.LVL5:
 183:Generated_Source\PSoC4/cyfitter_cfg.c **** 		while (count != 0u)
  59              		.loc 1 183 0
  60 0012 08E0     		b	.L3
  61              	.L4:
 184:Generated_Source\PSoC4/cyfitter_cfg.c **** 		{
 185:Generated_Source\PSoC4/cyfitter_cfg.c **** 			CY_SET_REG8((void *)(baseAddr + data_table[j].offset), data_table[j].value);
  62              		.loc 1 185 0
  63 0014 6A00     		lsls	r2, r5, #1
  64 0016 8A18     		adds	r2, r1, r2
  65 0018 1478     		ldrb	r4, [r2]
  66 001a A419     		adds	r4, r4, r6
  67 001c 5278     		ldrb	r2, [r2, #1]
  68 001e 2270     		strb	r2, [r4]
 186:Generated_Source\PSoC4/cyfitter_cfg.c **** 			j++;
  69              		.loc 1 186 0
  70 0020 0135     		adds	r5, r5, #1
  71              	.LVL6:
 187:Generated_Source\PSoC4/cyfitter_cfg.c **** 			count--;
  72              		.loc 1 187 0
  73 0022 013B     		subs	r3, r3, #1
  74              	.LVL7:
  75 0024 DBB2     		uxtb	r3, r3
  76              	.LVL8:
  77              	.L3:
 183:Generated_Source\PSoC4/cyfitter_cfg.c **** 		{
  78              		.loc 1 183 0
  79 0026 002B     		cmp	r3, #0
  80 0028 F4D1     		bne	.L4
  81              	.LBE2:
 178:Generated_Source\PSoC4/cyfitter_cfg.c **** 	{
  82              		.loc 1 178 0 discriminator 2
  83 002a 0137     		adds	r7, r7, #1
  84              	.LVL9:
  85              	.L2:
 178:Generated_Source\PSoC4/cyfitter_cfg.c **** 	{
  86              		.loc 1 178 0 is_stmt 0 discriminator 1
  87 002c 092F     		cmp	r7, #9
  88 002e EBD9     		bls	.L5
 188:Generated_Source\PSoC4/cyfitter_cfg.c **** 		}
 189:Generated_Source\PSoC4/cyfitter_cfg.c **** 	}
 190:Generated_Source\PSoC4/cyfitter_cfg.c **** }
  89              		.loc 1 190 0 is_stmt 1
  90              		@ sp needed
  91              	.LVL10:
  92              	.LVL11:
ARM GAS  C:\Users\Toreckk\AppData\Local\Temp\cc4CLsqf.s 			page 6


  93 0030 F0BD     		pop	{r4, r5, r6, r7, pc}
  94              		.cfi_endproc
  95              	.LFE5:
  96              		.size	cfg_write_bytes32, .-cfg_write_bytes32
  97 0032 C046     		.section	.text.AnalogSetDefault,"ax",%progbits
  98              		.align	2
  99              		.code	16
 100              		.thumb_func
 101              		.type	AnalogSetDefault, %function
 102              	AnalogSetDefault:
 103              	.LFB7:
 191:Generated_Source\PSoC4/cyfitter_cfg.c **** 
 192:Generated_Source\PSoC4/cyfitter_cfg.c **** 
 193:Generated_Source\PSoC4/cyfitter_cfg.c **** /*******************************************************************************
 194:Generated_Source\PSoC4/cyfitter_cfg.c **** * Function Name: ClockSetup
 195:Generated_Source\PSoC4/cyfitter_cfg.c **** ********************************************************************************
 196:Generated_Source\PSoC4/cyfitter_cfg.c **** *
 197:Generated_Source\PSoC4/cyfitter_cfg.c **** * Summary:
 198:Generated_Source\PSoC4/cyfitter_cfg.c **** *   Performs the initialization of all of the clocks in the device based on the
 199:Generated_Source\PSoC4/cyfitter_cfg.c **** *   settings in the Clock tab of the DWR.  This includes enabling the requested
 200:Generated_Source\PSoC4/cyfitter_cfg.c **** *   clocks and setting the necessary dividers to produce the desired frequency. 
 201:Generated_Source\PSoC4/cyfitter_cfg.c **** *
 202:Generated_Source\PSoC4/cyfitter_cfg.c **** * Parameters:
 203:Generated_Source\PSoC4/cyfitter_cfg.c **** *   void
 204:Generated_Source\PSoC4/cyfitter_cfg.c **** *
 205:Generated_Source\PSoC4/cyfitter_cfg.c **** * Return:
 206:Generated_Source\PSoC4/cyfitter_cfg.c **** *   void
 207:Generated_Source\PSoC4/cyfitter_cfg.c **** *
 208:Generated_Source\PSoC4/cyfitter_cfg.c **** *******************************************************************************/
 209:Generated_Source\PSoC4/cyfitter_cfg.c **** static void ClockSetup(void);
 210:Generated_Source\PSoC4/cyfitter_cfg.c **** CY_CFG_SECTION
 211:Generated_Source\PSoC4/cyfitter_cfg.c **** static void ClockSetup(void)
 212:Generated_Source\PSoC4/cyfitter_cfg.c **** {
 213:Generated_Source\PSoC4/cyfitter_cfg.c **** 
 214:Generated_Source\PSoC4/cyfitter_cfg.c **** 	/* Set Flash Cycles based on max possible frequency in case a glitch occurs during ClockSetup(). *
 215:Generated_Source\PSoC4/cyfitter_cfg.c **** 	CY_SET_REG32((void CYXDATA *)(CYREG_CPUSS_FLASH_CTL), (0x0012u));
 216:Generated_Source\PSoC4/cyfitter_cfg.c **** 
 217:Generated_Source\PSoC4/cyfitter_cfg.c **** 	/* Start the WCO */
 218:Generated_Source\PSoC4/cyfitter_cfg.c **** 	CySysClkWcoStart();
 219:Generated_Source\PSoC4/cyfitter_cfg.c **** 	CyDelayCycles(12000000u); /* WCO may take up to 500ms to start */
 220:Generated_Source\PSoC4/cyfitter_cfg.c **** 	(void)CySysClkWcoSetPowerMode(CY_SYS_CLK_WCO_LPM);    /* Switch to the low power mode */
 221:Generated_Source\PSoC4/cyfitter_cfg.c **** 
 222:Generated_Source\PSoC4/cyfitter_cfg.c **** 	/* Setup and trim IMO based on desired frequency. */
 223:Generated_Source\PSoC4/cyfitter_cfg.c **** 	CySysClkWriteImoFreq(48u);
 224:Generated_Source\PSoC4/cyfitter_cfg.c **** 	/* CYDEV_CLK_ILO_CONFIG Starting address: CYDEV_CLK_ILO_CONFIG */
 225:Generated_Source\PSoC4/cyfitter_cfg.c **** 	CY_SET_REG32((void *)(CYREG_CLK_ILO_CONFIG), 0x80000006u);
 226:Generated_Source\PSoC4/cyfitter_cfg.c **** 
 227:Generated_Source\PSoC4/cyfitter_cfg.c **** 	/* CYDEV_WDT_CONFIG Starting address: CYDEV_WDT_CONFIG */
 228:Generated_Source\PSoC4/cyfitter_cfg.c **** 	CY_SET_REG32((void *)(CYREG_WDT_CONFIG), 0x40000000u);
 229:Generated_Source\PSoC4/cyfitter_cfg.c **** 
 230:Generated_Source\PSoC4/cyfitter_cfg.c **** 
 231:Generated_Source\PSoC4/cyfitter_cfg.c **** 	/* Enable fast start mode for XO */
 232:Generated_Source\PSoC4/cyfitter_cfg.c **** 	CY_SET_REG32((void*)CYREG_BLE_BLERD_BB_XO, CY_GET_REG32((void*)CYREG_BLE_BLERD_BB_XO) | (uint32)0x
 233:Generated_Source\PSoC4/cyfitter_cfg.c **** 	CY_SET_REG32((void *)(CYREG_BLE_BLERD_BB_XO_CAPTRIM), 0x00003E2Du);
 234:Generated_Source\PSoC4/cyfitter_cfg.c **** 	/*Set XTAL(ECO) divider*/
 235:Generated_Source\PSoC4/cyfitter_cfg.c **** 	CY_SET_REG32((void *)(CYREG_BLE_BLESS_XTAL_CLK_DIV_CONFIG), 0x00000000u);
 236:Generated_Source\PSoC4/cyfitter_cfg.c **** 	/* Disable Crystal Stable Interrupt before enabling ECO */
ARM GAS  C:\Users\Toreckk\AppData\Local\Temp\cc4CLsqf.s 			page 7


 237:Generated_Source\PSoC4/cyfitter_cfg.c **** 	CY_SET_REG32((void*)CYREG_BLE_BLESS_LL_DSM_CTRL, CY_GET_REG32((void*)CYREG_BLE_BLESS_LL_DSM_CTRL) 
 238:Generated_Source\PSoC4/cyfitter_cfg.c **** 	/* Start the ECO and do not check status since it is not needed for HFCLK */
 239:Generated_Source\PSoC4/cyfitter_cfg.c **** 	(void)CySysClkEcoStart(2000u);
 240:Generated_Source\PSoC4/cyfitter_cfg.c **** 	CyDelayUs(1500u); /* Wait to stabilize */
 241:Generated_Source\PSoC4/cyfitter_cfg.c **** 
 242:Generated_Source\PSoC4/cyfitter_cfg.c **** 	/* Setup phase aligned clocks */
 243:Generated_Source\PSoC4/cyfitter_cfg.c **** 	CY_SET_REG32((void *)CYREG_PERI_DIV_16_CTL3, 0x00AFE300u);
 244:Generated_Source\PSoC4/cyfitter_cfg.c **** 	CY_SET_REG32((void *)CYREG_PERI_DIV_CMD, 0x8000FF43u);
 245:Generated_Source\PSoC4/cyfitter_cfg.c **** 	CY_SET_REG32((void *)CYREG_PERI_DIV_16_CTL0, 0x00000500u);
 246:Generated_Source\PSoC4/cyfitter_cfg.c **** 	CY_SET_REG32((void *)CYREG_PERI_DIV_CMD, 0x8000FF40u);
 247:Generated_Source\PSoC4/cyfitter_cfg.c **** 	CY_SET_REG32((void *)CYREG_PERI_DIV_16_CTL2, 0x00095F00u);
 248:Generated_Source\PSoC4/cyfitter_cfg.c **** 	CY_SET_REG32((void *)CYREG_PERI_DIV_CMD, 0x8000FF42u);
 249:Generated_Source\PSoC4/cyfitter_cfg.c **** 	CY_SET_REG32((void *)CYREG_PERI_DIV_16_CTL1, 0x00002F00u);
 250:Generated_Source\PSoC4/cyfitter_cfg.c **** 	CY_SET_REG32((void *)CYREG_PERI_DIV_CMD, 0x8000FF41u);
 251:Generated_Source\PSoC4/cyfitter_cfg.c **** 
 252:Generated_Source\PSoC4/cyfitter_cfg.c **** 	/* CYDEV_CLK_IMO_CONFIG Starting address: CYDEV_CLK_IMO_CONFIG */
 253:Generated_Source\PSoC4/cyfitter_cfg.c **** 	CY_SET_REG32((void *)(CYREG_CLK_IMO_CONFIG), 0x80000000u);
 254:Generated_Source\PSoC4/cyfitter_cfg.c **** 
 255:Generated_Source\PSoC4/cyfitter_cfg.c **** 	/* CYDEV_CLK_SELECT Starting address: CYDEV_CLK_SELECT */
 256:Generated_Source\PSoC4/cyfitter_cfg.c **** 	CY_SET_REG32((void *)(CYREG_CLK_SELECT), 0x00040000u);
 257:Generated_Source\PSoC4/cyfitter_cfg.c **** 
 258:Generated_Source\PSoC4/cyfitter_cfg.c **** 	/* CYDEV_PERI_PCLK_CTL14 Starting address: CYDEV_PERI_PCLK_CTL14 */
 259:Generated_Source\PSoC4/cyfitter_cfg.c **** 	CY_SET_REG32((void *)(CYREG_PERI_PCLK_CTL14), 0x00000043u);
 260:Generated_Source\PSoC4/cyfitter_cfg.c **** 
 261:Generated_Source\PSoC4/cyfitter_cfg.c **** 	/* CYDEV_PERI_PCLK_CTL12 Starting address: CYDEV_PERI_PCLK_CTL12 */
 262:Generated_Source\PSoC4/cyfitter_cfg.c **** 	CY_SET_REG32((void *)(CYREG_PERI_PCLK_CTL12), 0x00000040u);
 263:Generated_Source\PSoC4/cyfitter_cfg.c **** 
 264:Generated_Source\PSoC4/cyfitter_cfg.c **** 	/* CYDEV_PERI_PCLK_CTL10 Starting address: CYDEV_PERI_PCLK_CTL10 */
 265:Generated_Source\PSoC4/cyfitter_cfg.c **** 	CY_SET_REG32((void *)(CYREG_PERI_PCLK_CTL10), 0x00000043u);
 266:Generated_Source\PSoC4/cyfitter_cfg.c **** 
 267:Generated_Source\PSoC4/cyfitter_cfg.c **** 	/* CYDEV_PERI_PCLK_CTL9 Starting address: CYDEV_PERI_PCLK_CTL9 */
 268:Generated_Source\PSoC4/cyfitter_cfg.c **** 	CY_SET_REG32((void *)(CYREG_PERI_PCLK_CTL9), 0x00000042u);
 269:Generated_Source\PSoC4/cyfitter_cfg.c **** 
 270:Generated_Source\PSoC4/cyfitter_cfg.c **** 	/* CYDEV_PERI_PCLK_CTL8 Starting address: CYDEV_PERI_PCLK_CTL8 */
 271:Generated_Source\PSoC4/cyfitter_cfg.c **** 	CY_SET_REG32((void *)(CYREG_PERI_PCLK_CTL8), 0x00000042u);
 272:Generated_Source\PSoC4/cyfitter_cfg.c **** 
 273:Generated_Source\PSoC4/cyfitter_cfg.c **** 	/* CYDEV_PERI_PCLK_CTL7 Starting address: CYDEV_PERI_PCLK_CTL7 */
 274:Generated_Source\PSoC4/cyfitter_cfg.c **** 	CY_SET_REG32((void *)(CYREG_PERI_PCLK_CTL7), 0x00000041u);
 275:Generated_Source\PSoC4/cyfitter_cfg.c **** 
 276:Generated_Source\PSoC4/cyfitter_cfg.c **** 	(void)CyIntSetVector(8u, &CySysWdtIsr);
 277:Generated_Source\PSoC4/cyfitter_cfg.c **** 	CyIntEnable(8u);
 278:Generated_Source\PSoC4/cyfitter_cfg.c **** 	CY_SET_REG32((void *)(CYREG_WDT_CONFIG), 0x40000000u);
 279:Generated_Source\PSoC4/cyfitter_cfg.c **** }
 280:Generated_Source\PSoC4/cyfitter_cfg.c **** 
 281:Generated_Source\PSoC4/cyfitter_cfg.c **** 
 282:Generated_Source\PSoC4/cyfitter_cfg.c **** /* Analog API Functions */
 283:Generated_Source\PSoC4/cyfitter_cfg.c **** 
 284:Generated_Source\PSoC4/cyfitter_cfg.c **** 
 285:Generated_Source\PSoC4/cyfitter_cfg.c **** /*******************************************************************************
 286:Generated_Source\PSoC4/cyfitter_cfg.c **** * Function Name: AnalogSetDefault
 287:Generated_Source\PSoC4/cyfitter_cfg.c **** ********************************************************************************
 288:Generated_Source\PSoC4/cyfitter_cfg.c **** *
 289:Generated_Source\PSoC4/cyfitter_cfg.c **** * Summary:
 290:Generated_Source\PSoC4/cyfitter_cfg.c **** *  Sets up the analog portions of the chip to default values based on chip
 291:Generated_Source\PSoC4/cyfitter_cfg.c **** *  configuration options from the project.
 292:Generated_Source\PSoC4/cyfitter_cfg.c **** *
 293:Generated_Source\PSoC4/cyfitter_cfg.c **** * Parameters:
ARM GAS  C:\Users\Toreckk\AppData\Local\Temp\cc4CLsqf.s 			page 8


 294:Generated_Source\PSoC4/cyfitter_cfg.c **** *  void
 295:Generated_Source\PSoC4/cyfitter_cfg.c **** *
 296:Generated_Source\PSoC4/cyfitter_cfg.c **** * Return:
 297:Generated_Source\PSoC4/cyfitter_cfg.c **** *  void
 298:Generated_Source\PSoC4/cyfitter_cfg.c **** *
 299:Generated_Source\PSoC4/cyfitter_cfg.c **** *******************************************************************************/
 300:Generated_Source\PSoC4/cyfitter_cfg.c **** static void AnalogSetDefault(void);
 301:Generated_Source\PSoC4/cyfitter_cfg.c **** static void AnalogSetDefault(void)
 302:Generated_Source\PSoC4/cyfitter_cfg.c **** {
 104              		.loc 1 302 0
 105              		.cfi_startproc
 106              		@ args = 0, pretend = 0, frame = 0
 107              		@ frame_needed = 0, uses_anonymous_args = 0
 108              		@ link register save eliminated.
 303:Generated_Source\PSoC4/cyfitter_cfg.c **** 	CY_SET_XTND_REG32((void CYFAR *)CYREG_CTBM0_DFT_CTRL, 0x00000003u);
 109              		.loc 1 303 0
 110 0000 0323     		movs	r3, #3
 111 0002 044A     		ldr	r2, .L7
 112 0004 1360     		str	r3, [r2]
 304:Generated_Source\PSoC4/cyfitter_cfg.c **** 	CY_SET_XTND_REG32((void CYFAR *)CYREG_CTBM1_DFT_CTRL, 0x00000003u);
 113              		.loc 1 304 0
 114 0006 044A     		ldr	r2, .L7+4
 115 0008 1360     		str	r3, [r2]
 305:Generated_Source\PSoC4/cyfitter_cfg.c **** 	CY_SET_XTND_REG32((void CYFAR *)CYREG_PASS_DSAB_DSAB_CTRL, 0x00000000u);
 116              		.loc 1 305 0
 117 000a 0022     		movs	r2, #0
 118 000c 034B     		ldr	r3, .L7+8
 119 000e 1A60     		str	r2, [r3]
 306:Generated_Source\PSoC4/cyfitter_cfg.c **** }
 120              		.loc 1 306 0
 121              		@ sp needed
 122 0010 7047     		bx	lr
 123              	.L8:
 124 0012 C046     		.align	2
 125              	.L7:
 126 0014 30003040 		.word	1076887600
 127 0018 30003140 		.word	1076953136
 128 001c 000E3F40 		.word	1077874176
 129              		.cfi_endproc
 130              	.LFE7:
 131              		.size	AnalogSetDefault, .-AnalogSetDefault
 132              		.section	.text.CYMEMZERO,"ax",%progbits
 133              		.align	2
 134              		.code	16
 135              		.thumb_func
 136              		.type	CYMEMZERO, %function
 137              	CYMEMZERO:
 138              	.LFB2:
  77:Generated_Source\PSoC4/cyfitter_cfg.c **** 	(void)memset(s, 0, n);
 139              		.loc 1 77 0
 140              		.cfi_startproc
 141              		@ args = 0, pretend = 0, frame = 0
 142              		@ frame_needed = 0, uses_anonymous_args = 0
 143              	.LVL12:
 144 0000 10B5     		push	{r4, lr}
 145              		.cfi_def_cfa_offset 8
 146              		.cfi_offset 4, -8
ARM GAS  C:\Users\Toreckk\AppData\Local\Temp\cc4CLsqf.s 			page 9


 147              		.cfi_offset 14, -4
 148 0002 0A00     		movs	r2, r1
  78:Generated_Source\PSoC4/cyfitter_cfg.c **** }
 149              		.loc 1 78 0
 150 0004 0021     		movs	r1, #0
 151              	.LVL13:
 152 0006 FFF7FEFF 		bl	memset
 153              	.LVL14:
  79:Generated_Source\PSoC4/cyfitter_cfg.c **** CY_CFG_UNUSED
 154              		.loc 1 79 0
 155              		@ sp needed
 156 000a 10BD     		pop	{r4, pc}
 157              		.cfi_endproc
 158              	.LFE2:
 159              		.size	CYMEMZERO, .-CYMEMZERO
 160              		.section	.text.CYCONFIGCPYCODE,"ax",%progbits
 161              		.align	2
 162              		.code	16
 163              		.thumb_func
 164              		.type	CYCONFIGCPYCODE, %function
 165              	CYCONFIGCPYCODE:
 166              	.LFB4:
  91:Generated_Source\PSoC4/cyfitter_cfg.c **** 	(void)memcpy(dest, src, n);
 167              		.loc 1 91 0
 168              		.cfi_startproc
 169              		@ args = 0, pretend = 0, frame = 0
 170              		@ frame_needed = 0, uses_anonymous_args = 0
 171              	.LVL15:
 172 0000 10B5     		push	{r4, lr}
 173              		.cfi_def_cfa_offset 8
 174              		.cfi_offset 4, -8
 175              		.cfi_offset 14, -4
  92:Generated_Source\PSoC4/cyfitter_cfg.c **** }
 176              		.loc 1 92 0
 177 0002 FFF7FEFF 		bl	memcpy
 178              	.LVL16:
  93:Generated_Source\PSoC4/cyfitter_cfg.c **** 
 179              		.loc 1 93 0
 180              		@ sp needed
 181 0006 10BD     		pop	{r4, pc}
 182              		.cfi_endproc
 183              	.LFE4:
 184              		.size	CYCONFIGCPYCODE, .-CYCONFIGCPYCODE
 185              		.section	.psocinit,"ax",%progbits
 186              		.align	2
 187              		.code	16
 188              		.thumb_func
 189              		.type	ClockSetup, %function
 190              	ClockSetup:
 191              	.LFB6:
 212:Generated_Source\PSoC4/cyfitter_cfg.c **** 
 192              		.loc 1 212 0
 193              		.cfi_startproc
 194              		@ args = 0, pretend = 0, frame = 0
 195              		@ frame_needed = 0, uses_anonymous_args = 0
 196 0000 70B5     		push	{r4, r5, r6, lr}
 197              		.cfi_def_cfa_offset 16
ARM GAS  C:\Users\Toreckk\AppData\Local\Temp\cc4CLsqf.s 			page 10


 198              		.cfi_offset 4, -16
 199              		.cfi_offset 5, -12
 200              		.cfi_offset 6, -8
 201              		.cfi_offset 14, -4
 215:Generated_Source\PSoC4/cyfitter_cfg.c **** 
 202              		.loc 1 215 0
 203 0002 1222     		movs	r2, #18
 204 0004 314B     		ldr	r3, .L12
 205 0006 1A60     		str	r2, [r3]
 218:Generated_Source\PSoC4/cyfitter_cfg.c **** 	CyDelayCycles(12000000u); /* WCO may take up to 500ms to start */
 206              		.loc 1 218 0
 207 0008 FFF7FEFF 		bl	CySysClkWcoStart
 208              	.LVL17:
 219:Generated_Source\PSoC4/cyfitter_cfg.c **** 	(void)CySysClkWcoSetPowerMode(CY_SYS_CLK_WCO_LPM);    /* Switch to the low power mode */
 209              		.loc 1 219 0
 210 000c 3048     		ldr	r0, .L12+4
 211 000e FFF7FEFF 		bl	CyDelayCycles
 212              	.LVL18:
 220:Generated_Source\PSoC4/cyfitter_cfg.c **** 
 213              		.loc 1 220 0
 214 0012 0120     		movs	r0, #1
 215 0014 FFF7FEFF 		bl	CySysClkWcoSetPowerMode
 216              	.LVL19:
 223:Generated_Source\PSoC4/cyfitter_cfg.c **** 	/* CYDEV_CLK_ILO_CONFIG Starting address: CYDEV_CLK_ILO_CONFIG */
 217              		.loc 1 223 0
 218 0018 3020     		movs	r0, #48
 219 001a FFF7FEFF 		bl	CySysClkWriteImoFreq
 220              	.LVL20:
 225:Generated_Source\PSoC4/cyfitter_cfg.c **** 
 221              		.loc 1 225 0
 222 001e 2D4A     		ldr	r2, .L12+8
 223 0020 2D4B     		ldr	r3, .L12+12
 224 0022 1A60     		str	r2, [r3]
 228:Generated_Source\PSoC4/cyfitter_cfg.c **** 
 225              		.loc 1 228 0
 226 0024 2D4C     		ldr	r4, .L12+16
 227 0026 8025     		movs	r5, #128
 228 0028 ED05     		lsls	r5, r5, #23
 229 002a 2560     		str	r5, [r4]
 232:Generated_Source\PSoC4/cyfitter_cfg.c **** 	CY_SET_REG32((void *)(CYREG_BLE_BLERD_BB_XO_CAPTRIM), 0x00003E2Du);
 230              		.loc 1 232 0
 231 002c 2C4A     		ldr	r2, .L12+20
 232 002e 1168     		ldr	r1, [r2]
 233 0030 0223     		movs	r3, #2
 234 0032 0B43     		orrs	r3, r1
 235 0034 1360     		str	r3, [r2]
 233:Generated_Source\PSoC4/cyfitter_cfg.c **** 	/*Set XTAL(ECO) divider*/
 236              		.loc 1 233 0
 237 0036 2B4A     		ldr	r2, .L12+24
 238 0038 2B4B     		ldr	r3, .L12+28
 239 003a 1A60     		str	r2, [r3]
 235:Generated_Source\PSoC4/cyfitter_cfg.c **** 	/* Disable Crystal Stable Interrupt before enabling ECO */
 240              		.loc 1 235 0
 241 003c 0022     		movs	r2, #0
 242 003e 2B4B     		ldr	r3, .L12+32
 243 0040 1A60     		str	r2, [r3]
 237:Generated_Source\PSoC4/cyfitter_cfg.c **** 	/* Start the ECO and do not check status since it is not needed for HFCLK */
ARM GAS  C:\Users\Toreckk\AppData\Local\Temp\cc4CLsqf.s 			page 11


 244              		.loc 1 237 0
 245 0042 2B4A     		ldr	r2, .L12+36
 246 0044 1368     		ldr	r3, [r2]
 247 0046 0821     		movs	r1, #8
 248 0048 8B43     		bics	r3, r1
 249 004a 1360     		str	r3, [r2]
 239:Generated_Source\PSoC4/cyfitter_cfg.c **** 	CyDelayUs(1500u); /* Wait to stabilize */
 250              		.loc 1 239 0
 251 004c FA20     		movs	r0, #250
 252 004e C000     		lsls	r0, r0, #3
 253 0050 FFF7FEFF 		bl	CySysClkEcoStart
 254              	.LVL21:
 240:Generated_Source\PSoC4/cyfitter_cfg.c **** 
 255              		.loc 1 240 0
 256 0054 2748     		ldr	r0, .L12+40
 257 0056 FFF7FEFF 		bl	CyDelayUs
 258              	.LVL22:
 243:Generated_Source\PSoC4/cyfitter_cfg.c **** 	CY_SET_REG32((void *)CYREG_PERI_DIV_CMD, 0x8000FF43u);
 259              		.loc 1 243 0
 260 005a 274A     		ldr	r2, .L12+44
 261 005c 274B     		ldr	r3, .L12+48
 262 005e 1A60     		str	r2, [r3]
 244:Generated_Source\PSoC4/cyfitter_cfg.c **** 	CY_SET_REG32((void *)CYREG_PERI_DIV_16_CTL0, 0x00000500u);
 263              		.loc 1 244 0
 264 0060 274B     		ldr	r3, .L12+52
 265 0062 284A     		ldr	r2, .L12+56
 266 0064 1A60     		str	r2, [r3]
 245:Generated_Source\PSoC4/cyfitter_cfg.c **** 	CY_SET_REG32((void *)CYREG_PERI_DIV_CMD, 0x8000FF40u);
 267              		.loc 1 245 0
 268 0066 A021     		movs	r1, #160
 269 0068 C900     		lsls	r1, r1, #3
 270 006a 274A     		ldr	r2, .L12+60
 271 006c 1160     		str	r1, [r2]
 246:Generated_Source\PSoC4/cyfitter_cfg.c **** 	CY_SET_REG32((void *)CYREG_PERI_DIV_16_CTL2, 0x00095F00u);
 272              		.loc 1 246 0
 273 006e 274A     		ldr	r2, .L12+64
 274 0070 1A60     		str	r2, [r3]
 247:Generated_Source\PSoC4/cyfitter_cfg.c **** 	CY_SET_REG32((void *)CYREG_PERI_DIV_CMD, 0x8000FF42u);
 275              		.loc 1 247 0
 276 0072 2749     		ldr	r1, .L12+68
 277 0074 274A     		ldr	r2, .L12+72
 278 0076 1160     		str	r1, [r2]
 248:Generated_Source\PSoC4/cyfitter_cfg.c **** 	CY_SET_REG32((void *)CYREG_PERI_DIV_16_CTL1, 0x00002F00u);
 279              		.loc 1 248 0
 280 0078 274A     		ldr	r2, .L12+76
 281 007a 1A60     		str	r2, [r3]
 249:Generated_Source\PSoC4/cyfitter_cfg.c **** 	CY_SET_REG32((void *)CYREG_PERI_DIV_CMD, 0x8000FF41u);
 282              		.loc 1 249 0
 283 007c BC21     		movs	r1, #188
 284 007e 8901     		lsls	r1, r1, #6
 285 0080 264A     		ldr	r2, .L12+80
 286 0082 1160     		str	r1, [r2]
 250:Generated_Source\PSoC4/cyfitter_cfg.c **** 
 287              		.loc 1 250 0
 288 0084 264A     		ldr	r2, .L12+84
 289 0086 1A60     		str	r2, [r3]
 253:Generated_Source\PSoC4/cyfitter_cfg.c **** 
ARM GAS  C:\Users\Toreckk\AppData\Local\Temp\cc4CLsqf.s 			page 12


 290              		.loc 1 253 0
 291 0088 8022     		movs	r2, #128
 292 008a 1206     		lsls	r2, r2, #24
 293 008c 254B     		ldr	r3, .L12+88
 294 008e 1A60     		str	r2, [r3]
 256:Generated_Source\PSoC4/cyfitter_cfg.c **** 
 295              		.loc 1 256 0
 296 0090 8022     		movs	r2, #128
 297 0092 D202     		lsls	r2, r2, #11
 298 0094 244B     		ldr	r3, .L12+92
 299 0096 1A60     		str	r2, [r3]
 259:Generated_Source\PSoC4/cyfitter_cfg.c **** 
 300              		.loc 1 259 0
 301 0098 4323     		movs	r3, #67
 302 009a 244A     		ldr	r2, .L12+96
 303 009c 1360     		str	r3, [r2]
 262:Generated_Source\PSoC4/cyfitter_cfg.c **** 
 304              		.loc 1 262 0
 305 009e 4021     		movs	r1, #64
 306 00a0 234A     		ldr	r2, .L12+100
 307 00a2 1160     		str	r1, [r2]
 265:Generated_Source\PSoC4/cyfitter_cfg.c **** 
 308              		.loc 1 265 0
 309 00a4 234A     		ldr	r2, .L12+104
 310 00a6 1360     		str	r3, [r2]
 268:Generated_Source\PSoC4/cyfitter_cfg.c **** 
 311              		.loc 1 268 0
 312 00a8 013B     		subs	r3, r3, #1
 313 00aa 234A     		ldr	r2, .L12+108
 314 00ac 1360     		str	r3, [r2]
 271:Generated_Source\PSoC4/cyfitter_cfg.c **** 
 315              		.loc 1 271 0
 316 00ae 234A     		ldr	r2, .L12+112
 317 00b0 1360     		str	r3, [r2]
 274:Generated_Source\PSoC4/cyfitter_cfg.c **** 
 318              		.loc 1 274 0
 319 00b2 4122     		movs	r2, #65
 320 00b4 224B     		ldr	r3, .L12+116
 321 00b6 1A60     		str	r2, [r3]
 276:Generated_Source\PSoC4/cyfitter_cfg.c **** 	CyIntEnable(8u);
 322              		.loc 1 276 0
 323 00b8 2249     		ldr	r1, .L12+120
 324 00ba 0820     		movs	r0, #8
 325 00bc FFF7FEFF 		bl	CyIntSetVector
 326              	.LVL23:
 277:Generated_Source\PSoC4/cyfitter_cfg.c **** 	CY_SET_REG32((void *)(CYREG_WDT_CONFIG), 0x40000000u);
 327              		.loc 1 277 0
 328 00c0 0820     		movs	r0, #8
 329 00c2 FFF7FEFF 		bl	CyIntEnable
 330              	.LVL24:
 278:Generated_Source\PSoC4/cyfitter_cfg.c **** }
 331              		.loc 1 278 0
 332 00c6 2560     		str	r5, [r4]
 279:Generated_Source\PSoC4/cyfitter_cfg.c **** 
 333              		.loc 1 279 0
 334              		@ sp needed
 335 00c8 70BD     		pop	{r4, r5, r6, pc}
ARM GAS  C:\Users\Toreckk\AppData\Local\Temp\cc4CLsqf.s 			page 13


 336              	.L13:
 337 00ca C046     		.align	2
 338              	.L12:
 339 00cc 30001040 		.word	1074790448
 340 00d0 001BB700 		.word	12000000
 341 00d4 06000080 		.word	-2147483642
 342 00d8 04010B40 		.word	1074462980
 343 00dc 0C020B40 		.word	1074463244
 344 00e0 78002E40 		.word	1076756600
 345 00e4 2D3E0000 		.word	15917
 346 00e8 7C002E40 		.word	1076756604
 347 00ec 64F02E40 		.word	1076818020
 348 00f0 6CF02E40 		.word	1076818028
 349 00f4 DC050000 		.word	1500
 350 00f8 00E3AF00 		.word	11526912
 351 00fc 0C030140 		.word	1073808140
 352 0100 00000140 		.word	1073807360
 353 0104 43FF0080 		.word	-2147418301
 354 0108 00030140 		.word	1073808128
 355 010c 40FF0080 		.word	-2147418304
 356 0110 005F0900 		.word	614144
 357 0114 08030140 		.word	1073808136
 358 0118 42FF0080 		.word	-2147418302
 359 011c 04030140 		.word	1073808132
 360 0120 41FF0080 		.word	-2147418303
 361 0124 08010B40 		.word	1074462984
 362 0128 00010B40 		.word	1074462976
 363 012c 38010140 		.word	1073807672
 364 0130 30010140 		.word	1073807664
 365 0134 28010140 		.word	1073807656
 366 0138 24010140 		.word	1073807652
 367 013c 20010140 		.word	1073807648
 368 0140 1C010140 		.word	1073807644
 369 0144 00000000 		.word	CySysWdtIsr
 370              		.cfi_endproc
 371              	.LFE6:
 372              		.size	ClockSetup, .-ClockSetup
 373              		.align	2
 374              		.global	cyfitter_cfg
 375              		.code	16
 376              		.thumb_func
 377              		.type	cyfitter_cfg, %function
 378              	cyfitter_cfg:
 379              	.LFB8:
 307:Generated_Source\PSoC4/cyfitter_cfg.c **** 
 308:Generated_Source\PSoC4/cyfitter_cfg.c **** 
 309:Generated_Source\PSoC4/cyfitter_cfg.c **** 
 310:Generated_Source\PSoC4/cyfitter_cfg.c **** 
 311:Generated_Source\PSoC4/cyfitter_cfg.c **** /*******************************************************************************
 312:Generated_Source\PSoC4/cyfitter_cfg.c **** * Function Name: cyfitter_cfg
 313:Generated_Source\PSoC4/cyfitter_cfg.c **** ********************************************************************************
 314:Generated_Source\PSoC4/cyfitter_cfg.c **** * Summary:
 315:Generated_Source\PSoC4/cyfitter_cfg.c **** *  This function is called by the start-up code for the selected device. It
 316:Generated_Source\PSoC4/cyfitter_cfg.c **** *  performs all of the necessary device configuration based on the design
 317:Generated_Source\PSoC4/cyfitter_cfg.c **** *  settings.  This includes settings from the Design Wide Resources (DWR) such
 318:Generated_Source\PSoC4/cyfitter_cfg.c **** *  as Clocks and Pins as well as any component configuration that is necessary.
 319:Generated_Source\PSoC4/cyfitter_cfg.c **** *
ARM GAS  C:\Users\Toreckk\AppData\Local\Temp\cc4CLsqf.s 			page 14


 320:Generated_Source\PSoC4/cyfitter_cfg.c **** * Parameters:
 321:Generated_Source\PSoC4/cyfitter_cfg.c **** *   void
 322:Generated_Source\PSoC4/cyfitter_cfg.c **** *
 323:Generated_Source\PSoC4/cyfitter_cfg.c **** * Return:
 324:Generated_Source\PSoC4/cyfitter_cfg.c **** *   void
 325:Generated_Source\PSoC4/cyfitter_cfg.c **** *
 326:Generated_Source\PSoC4/cyfitter_cfg.c **** *******************************************************************************/
 327:Generated_Source\PSoC4/cyfitter_cfg.c **** CY_CFG_SECTION
 328:Generated_Source\PSoC4/cyfitter_cfg.c **** void cyfitter_cfg(void)
 329:Generated_Source\PSoC4/cyfitter_cfg.c **** {
 380              		.loc 1 329 0
 381              		.cfi_startproc
 382              		@ args = 0, pretend = 0, frame = 0
 383              		@ frame_needed = 0, uses_anonymous_args = 0
 384 0148 70B5     		push	{r4, r5, r6, lr}
 385              		.cfi_def_cfa_offset 16
 386              		.cfi_offset 4, -16
 387              		.cfi_offset 5, -12
 388              		.cfi_offset 6, -8
 389              		.cfi_offset 14, -4
 330:Generated_Source\PSoC4/cyfitter_cfg.c **** 	/* Disable interrupts by default. Let user enable if/when they want. */
 331:Generated_Source\PSoC4/cyfitter_cfg.c **** 	CyGlobalIntDisable;
 390              		.loc 1 331 0
 391              		.syntax divided
 392              	@ 331 "Generated_Source\PSoC4\cyfitter_cfg.c" 1
 393 014a 72B6     		CPSID   i
 394              	@ 0 "" 2
 332:Generated_Source\PSoC4/cyfitter_cfg.c **** 
 333:Generated_Source\PSoC4/cyfitter_cfg.c **** 	CY_SET_REG32((void *)(CYREG_BLE_BLESS_LL_DSM_CTRL), 0x00000000u);
 395              		.loc 1 333 0
 396              		.thumb
 397              		.syntax unified
 398 014c 0022     		movs	r2, #0
 399 014e 434B     		ldr	r3, .L19
 400 0150 1A60     		str	r2, [r3]
 334:Generated_Source\PSoC4/cyfitter_cfg.c **** 
 335:Generated_Source\PSoC4/cyfitter_cfg.c **** 	/* Enable the clock in the interrupt controller for the routed interrupts */
 336:Generated_Source\PSoC4/cyfitter_cfg.c **** 	CY_SET_REG8((void *)CYREG_UDB_UDBIF_INT_CLK_CTL, 0x01u);
 401              		.loc 1 336 0
 402 0152 0132     		adds	r2, r2, #1
 403 0154 424B     		ldr	r3, .L19+4
 404 0156 1A70     		strb	r2, [r3]
 405              	.LVL25:
 406              	.LBB3:
 337:Generated_Source\PSoC4/cyfitter_cfg.c **** 	{
 338:Generated_Source\PSoC4/cyfitter_cfg.c **** 		static const uint32 CYCODE cy_cfg_addr_table[] = {
 339:Generated_Source\PSoC4/cyfitter_cfg.c **** 			0x400F0002u, /* Base address: 0x400F0000 Count: 2 */
 340:Generated_Source\PSoC4/cyfitter_cfg.c **** 			0x400F301Au, /* Base address: 0x400F3000 Count: 26 */
 341:Generated_Source\PSoC4/cyfitter_cfg.c **** 			0x400F3133u, /* Base address: 0x400F3100 Count: 51 */
 342:Generated_Source\PSoC4/cyfitter_cfg.c **** 			0x400F3221u, /* Base address: 0x400F3200 Count: 33 */
 343:Generated_Source\PSoC4/cyfitter_cfg.c **** 			0x400F3343u, /* Base address: 0x400F3300 Count: 67 */
 344:Generated_Source\PSoC4/cyfitter_cfg.c **** 			0x400F4009u, /* Base address: 0x400F4000 Count: 9 */
 345:Generated_Source\PSoC4/cyfitter_cfg.c **** 			0x400F4113u, /* Base address: 0x400F4100 Count: 19 */
 346:Generated_Source\PSoC4/cyfitter_cfg.c **** 			0x400F4207u, /* Base address: 0x400F4200 Count: 7 */
 347:Generated_Source\PSoC4/cyfitter_cfg.c **** 			0x400F4309u, /* Base address: 0x400F4300 Count: 9 */
 348:Generated_Source\PSoC4/cyfitter_cfg.c **** 			0x400F6002u, /* Base address: 0x400F6000 Count: 2 */
 349:Generated_Source\PSoC4/cyfitter_cfg.c **** 		};
ARM GAS  C:\Users\Toreckk\AppData\Local\Temp\cc4CLsqf.s 			page 15


 350:Generated_Source\PSoC4/cyfitter_cfg.c **** 
 351:Generated_Source\PSoC4/cyfitter_cfg.c **** 		static const cy_cfg_addrvalue_t CYCODE cy_cfg_data_table[] = {
 352:Generated_Source\PSoC4/cyfitter_cfg.c **** 			{0x81u, 0x0Du},
 353:Generated_Source\PSoC4/cyfitter_cfg.c **** 			{0x82u, 0x1Fu},
 354:Generated_Source\PSoC4/cyfitter_cfg.c **** 			{0x00u, 0x02u},
 355:Generated_Source\PSoC4/cyfitter_cfg.c **** 			{0x02u, 0x0Du},
 356:Generated_Source\PSoC4/cyfitter_cfg.c **** 			{0x04u, 0x09u},
 357:Generated_Source\PSoC4/cyfitter_cfg.c **** 			{0x06u, 0x06u},
 358:Generated_Source\PSoC4/cyfitter_cfg.c **** 			{0x07u, 0x07u},
 359:Generated_Source\PSoC4/cyfitter_cfg.c **** 			{0x14u, 0x05u},
 360:Generated_Source\PSoC4/cyfitter_cfg.c **** 			{0x16u, 0x0Au},
 361:Generated_Source\PSoC4/cyfitter_cfg.c **** 			{0x17u, 0x01u},
 362:Generated_Source\PSoC4/cyfitter_cfg.c **** 			{0x19u, 0x04u},
 363:Generated_Source\PSoC4/cyfitter_cfg.c **** 			{0x1Cu, 0x03u},
 364:Generated_Source\PSoC4/cyfitter_cfg.c **** 			{0x1Eu, 0x0Cu},
 365:Generated_Source\PSoC4/cyfitter_cfg.c **** 			{0x2Fu, 0x08u},
 366:Generated_Source\PSoC4/cyfitter_cfg.c **** 			{0x30u, 0x0Fu},
 367:Generated_Source\PSoC4/cyfitter_cfg.c **** 			{0x31u, 0x04u},
 368:Generated_Source\PSoC4/cyfitter_cfg.c **** 			{0x33u, 0x08u},
 369:Generated_Source\PSoC4/cyfitter_cfg.c **** 			{0x35u, 0x02u},
 370:Generated_Source\PSoC4/cyfitter_cfg.c **** 			{0x37u, 0x01u},
 371:Generated_Source\PSoC4/cyfitter_cfg.c **** 			{0x3Au, 0x02u},
 372:Generated_Source\PSoC4/cyfitter_cfg.c **** 			{0x54u, 0x40u},
 373:Generated_Source\PSoC4/cyfitter_cfg.c **** 			{0x56u, 0x04u},
 374:Generated_Source\PSoC4/cyfitter_cfg.c **** 			{0x58u, 0x04u},
 375:Generated_Source\PSoC4/cyfitter_cfg.c **** 			{0x59u, 0x04u},
 376:Generated_Source\PSoC4/cyfitter_cfg.c **** 			{0x5Bu, 0x04u},
 377:Generated_Source\PSoC4/cyfitter_cfg.c **** 			{0x5Cu, 0x31u},
 378:Generated_Source\PSoC4/cyfitter_cfg.c **** 			{0x5Du, 0x10u},
 379:Generated_Source\PSoC4/cyfitter_cfg.c **** 			{0x5Fu, 0x01u},
 380:Generated_Source\PSoC4/cyfitter_cfg.c **** 			{0x01u, 0x02u},
 381:Generated_Source\PSoC4/cyfitter_cfg.c **** 			{0x03u, 0x20u},
 382:Generated_Source\PSoC4/cyfitter_cfg.c **** 			{0x04u, 0x02u},
 383:Generated_Source\PSoC4/cyfitter_cfg.c **** 			{0x05u, 0x10u},
 384:Generated_Source\PSoC4/cyfitter_cfg.c **** 			{0x06u, 0x40u},
 385:Generated_Source\PSoC4/cyfitter_cfg.c **** 			{0x07u, 0x02u},
 386:Generated_Source\PSoC4/cyfitter_cfg.c **** 			{0x09u, 0x88u},
 387:Generated_Source\PSoC4/cyfitter_cfg.c **** 			{0x0Du, 0xA8u},
 388:Generated_Source\PSoC4/cyfitter_cfg.c **** 			{0x0Eu, 0x40u},
 389:Generated_Source\PSoC4/cyfitter_cfg.c **** 			{0x15u, 0x41u},
 390:Generated_Source\PSoC4/cyfitter_cfg.c **** 			{0x17u, 0x14u},
 391:Generated_Source\PSoC4/cyfitter_cfg.c **** 			{0x19u, 0x02u},
 392:Generated_Source\PSoC4/cyfitter_cfg.c **** 			{0x1Cu, 0x10u},
 393:Generated_Source\PSoC4/cyfitter_cfg.c **** 			{0x1Du, 0x10u},
 394:Generated_Source\PSoC4/cyfitter_cfg.c **** 			{0x1Eu, 0x40u},
 395:Generated_Source\PSoC4/cyfitter_cfg.c **** 			{0x20u, 0x42u},
 396:Generated_Source\PSoC4/cyfitter_cfg.c **** 			{0x22u, 0x14u},
 397:Generated_Source\PSoC4/cyfitter_cfg.c **** 			{0x23u, 0x20u},
 398:Generated_Source\PSoC4/cyfitter_cfg.c **** 			{0x24u, 0x04u},
 399:Generated_Source\PSoC4/cyfitter_cfg.c **** 			{0x26u, 0x08u},
 400:Generated_Source\PSoC4/cyfitter_cfg.c **** 			{0x27u, 0x01u},
 401:Generated_Source\PSoC4/cyfitter_cfg.c **** 			{0x2Au, 0x80u},
 402:Generated_Source\PSoC4/cyfitter_cfg.c **** 			{0x2Fu, 0x28u},
 403:Generated_Source\PSoC4/cyfitter_cfg.c **** 			{0x32u, 0x14u},
 404:Generated_Source\PSoC4/cyfitter_cfg.c **** 			{0x35u, 0x40u},
 405:Generated_Source\PSoC4/cyfitter_cfg.c **** 			{0x36u, 0x08u},
 406:Generated_Source\PSoC4/cyfitter_cfg.c **** 			{0x37u, 0x21u},
ARM GAS  C:\Users\Toreckk\AppData\Local\Temp\cc4CLsqf.s 			page 16


 407:Generated_Source\PSoC4/cyfitter_cfg.c **** 			{0x39u, 0x04u},
 408:Generated_Source\PSoC4/cyfitter_cfg.c **** 			{0x3Fu, 0x80u},
 409:Generated_Source\PSoC4/cyfitter_cfg.c **** 			{0x47u, 0x20u},
 410:Generated_Source\PSoC4/cyfitter_cfg.c **** 			{0x4Du, 0x04u},
 411:Generated_Source\PSoC4/cyfitter_cfg.c **** 			{0x4Fu, 0x81u},
 412:Generated_Source\PSoC4/cyfitter_cfg.c **** 			{0x57u, 0x40u},
 413:Generated_Source\PSoC4/cyfitter_cfg.c **** 			{0x5Cu, 0x44u},
 414:Generated_Source\PSoC4/cyfitter_cfg.c **** 			{0x5Fu, 0x01u},
 415:Generated_Source\PSoC4/cyfitter_cfg.c **** 			{0x60u, 0x10u},
 416:Generated_Source\PSoC4/cyfitter_cfg.c **** 			{0x62u, 0x60u},
 417:Generated_Source\PSoC4/cyfitter_cfg.c **** 			{0x63u, 0x40u},
 418:Generated_Source\PSoC4/cyfitter_cfg.c **** 			{0x76u, 0x80u},
 419:Generated_Source\PSoC4/cyfitter_cfg.c **** 			{0x82u, 0x08u},
 420:Generated_Source\PSoC4/cyfitter_cfg.c **** 			{0x87u, 0x40u},
 421:Generated_Source\PSoC4/cyfitter_cfg.c **** 			{0xC0u, 0xDCu},
 422:Generated_Source\PSoC4/cyfitter_cfg.c **** 			{0xC2u, 0xF5u},
 423:Generated_Source\PSoC4/cyfitter_cfg.c **** 			{0xC4u, 0xF0u},
 424:Generated_Source\PSoC4/cyfitter_cfg.c **** 			{0xCAu, 0x68u},
 425:Generated_Source\PSoC4/cyfitter_cfg.c **** 			{0xCCu, 0xF6u},
 426:Generated_Source\PSoC4/cyfitter_cfg.c **** 			{0xCEu, 0x12u},
 427:Generated_Source\PSoC4/cyfitter_cfg.c **** 			{0xD0u, 0x20u},
 428:Generated_Source\PSoC4/cyfitter_cfg.c **** 			{0xD2u, 0x10u},
 429:Generated_Source\PSoC4/cyfitter_cfg.c **** 			{0xD6u, 0xD0u},
 430:Generated_Source\PSoC4/cyfitter_cfg.c **** 			{0xD8u, 0x0Fu},
 431:Generated_Source\PSoC4/cyfitter_cfg.c **** 			{0xC0u, 0x32u},
 432:Generated_Source\PSoC4/cyfitter_cfg.c **** 			{0xC1u, 0x01u},
 433:Generated_Source\PSoC4/cyfitter_cfg.c **** 			{0xC2u, 0x40u},
 434:Generated_Source\PSoC4/cyfitter_cfg.c **** 			{0xC4u, 0x06u},
 435:Generated_Source\PSoC4/cyfitter_cfg.c **** 			{0xC5u, 0xBEu},
 436:Generated_Source\PSoC4/cyfitter_cfg.c **** 			{0xC6u, 0xF0u},
 437:Generated_Source\PSoC4/cyfitter_cfg.c **** 			{0xC7u, 0xDCu},
 438:Generated_Source\PSoC4/cyfitter_cfg.c **** 			{0xC8u, 0x3Bu},
 439:Generated_Source\PSoC4/cyfitter_cfg.c **** 			{0xC9u, 0xFFu},
 440:Generated_Source\PSoC4/cyfitter_cfg.c **** 			{0xCAu, 0xFFu},
 441:Generated_Source\PSoC4/cyfitter_cfg.c **** 			{0xCBu, 0xFFu},
 442:Generated_Source\PSoC4/cyfitter_cfg.c **** 			{0xCCu, 0x23u},
 443:Generated_Source\PSoC4/cyfitter_cfg.c **** 			{0xCEu, 0xF0u},
 444:Generated_Source\PSoC4/cyfitter_cfg.c **** 			{0xCFu, 0x08u},
 445:Generated_Source\PSoC4/cyfitter_cfg.c **** 			{0xD0u, 0x04u},
 446:Generated_Source\PSoC4/cyfitter_cfg.c **** 			{0xD4u, 0x09u},
 447:Generated_Source\PSoC4/cyfitter_cfg.c **** 			{0xD6u, 0x04u},
 448:Generated_Source\PSoC4/cyfitter_cfg.c **** 			{0xDAu, 0x04u},
 449:Generated_Source\PSoC4/cyfitter_cfg.c **** 			{0xDBu, 0x04u},
 450:Generated_Source\PSoC4/cyfitter_cfg.c **** 			{0xDDu, 0x11u},
 451:Generated_Source\PSoC4/cyfitter_cfg.c **** 			{0xDFu, 0x01u},
 452:Generated_Source\PSoC4/cyfitter_cfg.c **** 			{0xE2u, 0xC0u},
 453:Generated_Source\PSoC4/cyfitter_cfg.c **** 			{0xE4u, 0x40u},
 454:Generated_Source\PSoC4/cyfitter_cfg.c **** 			{0xE5u, 0x01u},
 455:Generated_Source\PSoC4/cyfitter_cfg.c **** 			{0xE6u, 0x10u},
 456:Generated_Source\PSoC4/cyfitter_cfg.c **** 			{0xE7u, 0x11u},
 457:Generated_Source\PSoC4/cyfitter_cfg.c **** 			{0xE8u, 0xC0u},
 458:Generated_Source\PSoC4/cyfitter_cfg.c **** 			{0xE9u, 0x01u},
 459:Generated_Source\PSoC4/cyfitter_cfg.c **** 			{0xEBu, 0x11u},
 460:Generated_Source\PSoC4/cyfitter_cfg.c **** 			{0xECu, 0x40u},
 461:Generated_Source\PSoC4/cyfitter_cfg.c **** 			{0xEDu, 0x01u},
 462:Generated_Source\PSoC4/cyfitter_cfg.c **** 			{0xEEu, 0x40u},
 463:Generated_Source\PSoC4/cyfitter_cfg.c **** 			{0xEFu, 0x01u},
ARM GAS  C:\Users\Toreckk\AppData\Local\Temp\cc4CLsqf.s 			page 17


 464:Generated_Source\PSoC4/cyfitter_cfg.c **** 			{0x05u, 0x50u},
 465:Generated_Source\PSoC4/cyfitter_cfg.c **** 			{0x07u, 0x10u},
 466:Generated_Source\PSoC4/cyfitter_cfg.c **** 			{0x0Du, 0x28u},
 467:Generated_Source\PSoC4/cyfitter_cfg.c **** 			{0x0Eu, 0x02u},
 468:Generated_Source\PSoC4/cyfitter_cfg.c **** 			{0x14u, 0x10u},
 469:Generated_Source\PSoC4/cyfitter_cfg.c **** 			{0x15u, 0x58u},
 470:Generated_Source\PSoC4/cyfitter_cfg.c **** 			{0x17u, 0x02u},
 471:Generated_Source\PSoC4/cyfitter_cfg.c **** 			{0x1Du, 0xE8u},
 472:Generated_Source\PSoC4/cyfitter_cfg.c **** 			{0x1Fu, 0x28u},
 473:Generated_Source\PSoC4/cyfitter_cfg.c **** 			{0x25u, 0x10u},
 474:Generated_Source\PSoC4/cyfitter_cfg.c **** 			{0x26u, 0x08u},
 475:Generated_Source\PSoC4/cyfitter_cfg.c **** 			{0x27u, 0x49u},
 476:Generated_Source\PSoC4/cyfitter_cfg.c **** 			{0x2Du, 0x40u},
 477:Generated_Source\PSoC4/cyfitter_cfg.c **** 			{0x2Fu, 0x28u},
 478:Generated_Source\PSoC4/cyfitter_cfg.c **** 			{0x35u, 0x50u},
 479:Generated_Source\PSoC4/cyfitter_cfg.c **** 			{0x36u, 0x01u},
 480:Generated_Source\PSoC4/cyfitter_cfg.c **** 			{0x37u, 0x08u},
 481:Generated_Source\PSoC4/cyfitter_cfg.c **** 			{0x3Cu, 0x80u},
 482:Generated_Source\PSoC4/cyfitter_cfg.c **** 			{0x3Eu, 0x16u},
 483:Generated_Source\PSoC4/cyfitter_cfg.c **** 			{0x41u, 0xA8u},
 484:Generated_Source\PSoC4/cyfitter_cfg.c **** 			{0x43u, 0x01u},
 485:Generated_Source\PSoC4/cyfitter_cfg.c **** 			{0x45u, 0xA8u},
 486:Generated_Source\PSoC4/cyfitter_cfg.c **** 			{0x47u, 0x01u},
 487:Generated_Source\PSoC4/cyfitter_cfg.c **** 			{0x48u, 0x40u},
 488:Generated_Source\PSoC4/cyfitter_cfg.c **** 			{0x49u, 0x24u},
 489:Generated_Source\PSoC4/cyfitter_cfg.c **** 			{0x4Fu, 0x80u},
 490:Generated_Source\PSoC4/cyfitter_cfg.c **** 			{0x50u, 0x01u},
 491:Generated_Source\PSoC4/cyfitter_cfg.c **** 			{0x51u, 0x04u},
 492:Generated_Source\PSoC4/cyfitter_cfg.c **** 			{0x52u, 0x20u},
 493:Generated_Source\PSoC4/cyfitter_cfg.c **** 			{0x58u, 0x10u},
 494:Generated_Source\PSoC4/cyfitter_cfg.c **** 			{0x59u, 0x04u},
 495:Generated_Source\PSoC4/cyfitter_cfg.c **** 			{0x5Bu, 0x41u},
 496:Generated_Source\PSoC4/cyfitter_cfg.c **** 			{0x62u, 0x42u},
 497:Generated_Source\PSoC4/cyfitter_cfg.c **** 			{0x65u, 0x02u},
 498:Generated_Source\PSoC4/cyfitter_cfg.c **** 			{0x6Du, 0x51u},
 499:Generated_Source\PSoC4/cyfitter_cfg.c **** 			{0x6Eu, 0x16u},
 500:Generated_Source\PSoC4/cyfitter_cfg.c **** 			{0x6Fu, 0x14u},
 501:Generated_Source\PSoC4/cyfitter_cfg.c **** 			{0x76u, 0x02u},
 502:Generated_Source\PSoC4/cyfitter_cfg.c **** 			{0x77u, 0x02u},
 503:Generated_Source\PSoC4/cyfitter_cfg.c **** 			{0x81u, 0x20u},
 504:Generated_Source\PSoC4/cyfitter_cfg.c **** 			{0x83u, 0x40u},
 505:Generated_Source\PSoC4/cyfitter_cfg.c **** 			{0x8Au, 0x48u},
 506:Generated_Source\PSoC4/cyfitter_cfg.c **** 			{0x8Eu, 0x02u},
 507:Generated_Source\PSoC4/cyfitter_cfg.c **** 			{0x94u, 0x02u},
 508:Generated_Source\PSoC4/cyfitter_cfg.c **** 			{0x95u, 0x41u},
 509:Generated_Source\PSoC4/cyfitter_cfg.c **** 			{0x99u, 0x12u},
 510:Generated_Source\PSoC4/cyfitter_cfg.c **** 			{0x9Du, 0x40u},
 511:Generated_Source\PSoC4/cyfitter_cfg.c **** 			{0x9Fu, 0x16u},
 512:Generated_Source\PSoC4/cyfitter_cfg.c **** 			{0xA5u, 0xB8u},
 513:Generated_Source\PSoC4/cyfitter_cfg.c **** 			{0xA6u, 0x20u},
 514:Generated_Source\PSoC4/cyfitter_cfg.c **** 			{0xA7u, 0x28u},
 515:Generated_Source\PSoC4/cyfitter_cfg.c **** 			{0xA9u, 0x10u},
 516:Generated_Source\PSoC4/cyfitter_cfg.c **** 			{0xACu, 0x01u},
 517:Generated_Source\PSoC4/cyfitter_cfg.c **** 			{0xAFu, 0x01u},
 518:Generated_Source\PSoC4/cyfitter_cfg.c **** 			{0xC0u, 0xE0u},
 519:Generated_Source\PSoC4/cyfitter_cfg.c **** 			{0xC2u, 0xE0u},
 520:Generated_Source\PSoC4/cyfitter_cfg.c **** 			{0xC4u, 0xF0u},
ARM GAS  C:\Users\Toreckk\AppData\Local\Temp\cc4CLsqf.s 			page 18


 521:Generated_Source\PSoC4/cyfitter_cfg.c **** 			{0xCAu, 0x70u},
 522:Generated_Source\PSoC4/cyfitter_cfg.c **** 			{0xCCu, 0xF0u},
 523:Generated_Source\PSoC4/cyfitter_cfg.c **** 			{0xCEu, 0xF0u},
 524:Generated_Source\PSoC4/cyfitter_cfg.c **** 			{0xD0u, 0xFFu},
 525:Generated_Source\PSoC4/cyfitter_cfg.c **** 			{0xD2u, 0x14u},
 526:Generated_Source\PSoC4/cyfitter_cfg.c **** 			{0xD6u, 0x0Fu},
 527:Generated_Source\PSoC4/cyfitter_cfg.c **** 			{0xD8u, 0x89u},
 528:Generated_Source\PSoC4/cyfitter_cfg.c **** 			{0xE0u, 0x08u},
 529:Generated_Source\PSoC4/cyfitter_cfg.c **** 			{0xE6u, 0x10u},
 530:Generated_Source\PSoC4/cyfitter_cfg.c **** 			{0xECu, 0x08u},
 531:Generated_Source\PSoC4/cyfitter_cfg.c **** 			{0x56u, 0x10u},
 532:Generated_Source\PSoC4/cyfitter_cfg.c **** 			{0x62u, 0x02u},
 533:Generated_Source\PSoC4/cyfitter_cfg.c **** 			{0x66u, 0x01u},
 534:Generated_Source\PSoC4/cyfitter_cfg.c **** 			{0x82u, 0x01u},
 535:Generated_Source\PSoC4/cyfitter_cfg.c **** 			{0x86u, 0x40u},
 536:Generated_Source\PSoC4/cyfitter_cfg.c **** 			{0xD4u, 0x40u},
 537:Generated_Source\PSoC4/cyfitter_cfg.c **** 			{0xD8u, 0xC0u},
 538:Generated_Source\PSoC4/cyfitter_cfg.c **** 			{0xE2u, 0x20u},
 539:Generated_Source\PSoC4/cyfitter_cfg.c **** 			{0xE6u, 0x40u},
 540:Generated_Source\PSoC4/cyfitter_cfg.c **** 			{0x02u, 0x40u},
 541:Generated_Source\PSoC4/cyfitter_cfg.c **** 			{0x0Du, 0x20u},
 542:Generated_Source\PSoC4/cyfitter_cfg.c **** 			{0x0Eu, 0x02u},
 543:Generated_Source\PSoC4/cyfitter_cfg.c **** 			{0x6Eu, 0x80u},
 544:Generated_Source\PSoC4/cyfitter_cfg.c **** 			{0x70u, 0x40u},
 545:Generated_Source\PSoC4/cyfitter_cfg.c **** 			{0x81u, 0x20u},
 546:Generated_Source\PSoC4/cyfitter_cfg.c **** 			{0x82u, 0x01u},
 547:Generated_Source\PSoC4/cyfitter_cfg.c **** 			{0x86u, 0x40u},
 548:Generated_Source\PSoC4/cyfitter_cfg.c **** 			{0x8Cu, 0x40u},
 549:Generated_Source\PSoC4/cyfitter_cfg.c **** 			{0xA2u, 0x40u},
 550:Generated_Source\PSoC4/cyfitter_cfg.c **** 			{0xAAu, 0x02u},
 551:Generated_Source\PSoC4/cyfitter_cfg.c **** 			{0xAEu, 0x10u},
 552:Generated_Source\PSoC4/cyfitter_cfg.c **** 			{0xC0u, 0x10u},
 553:Generated_Source\PSoC4/cyfitter_cfg.c **** 			{0xC2u, 0x80u},
 554:Generated_Source\PSoC4/cyfitter_cfg.c **** 			{0xDAu, 0x80u},
 555:Generated_Source\PSoC4/cyfitter_cfg.c **** 			{0xDCu, 0x20u},
 556:Generated_Source\PSoC4/cyfitter_cfg.c **** 			{0xE0u, 0x30u},
 557:Generated_Source\PSoC4/cyfitter_cfg.c **** 			{0xE4u, 0x80u},
 558:Generated_Source\PSoC4/cyfitter_cfg.c **** 			{0xEAu, 0xC0u},
 559:Generated_Source\PSoC4/cyfitter_cfg.c **** 			{0x10u, 0x02u},
 560:Generated_Source\PSoC4/cyfitter_cfg.c **** 			{0x15u, 0x08u},
 561:Generated_Source\PSoC4/cyfitter_cfg.c **** 			{0x3Au, 0x40u},
 562:Generated_Source\PSoC4/cyfitter_cfg.c **** 			{0x51u, 0x04u},
 563:Generated_Source\PSoC4/cyfitter_cfg.c **** 			{0xC4u, 0x06u},
 564:Generated_Source\PSoC4/cyfitter_cfg.c **** 			{0xCEu, 0x08u},
 565:Generated_Source\PSoC4/cyfitter_cfg.c **** 			{0xD4u, 0x04u},
 566:Generated_Source\PSoC4/cyfitter_cfg.c **** 			{0x54u, 0x02u},
 567:Generated_Source\PSoC4/cyfitter_cfg.c **** 			{0x64u, 0x40u},
 568:Generated_Source\PSoC4/cyfitter_cfg.c **** 			{0x86u, 0x40u},
 569:Generated_Source\PSoC4/cyfitter_cfg.c **** 			{0x98u, 0x40u},
 570:Generated_Source\PSoC4/cyfitter_cfg.c **** 			{0x9Eu, 0x40u},
 571:Generated_Source\PSoC4/cyfitter_cfg.c **** 			{0xA0u, 0x02u},
 572:Generated_Source\PSoC4/cyfitter_cfg.c **** 			{0xACu, 0x40u},
 573:Generated_Source\PSoC4/cyfitter_cfg.c **** 			{0xD6u, 0x04u},
 574:Generated_Source\PSoC4/cyfitter_cfg.c **** 			{0xD8u, 0x01u},
 575:Generated_Source\PSoC4/cyfitter_cfg.c **** 			{0x01u, 0x0Au},
 576:Generated_Source\PSoC4/cyfitter_cfg.c **** 			{0x10u, 0x0Au},
 577:Generated_Source\PSoC4/cyfitter_cfg.c **** 		};
ARM GAS  C:\Users\Toreckk\AppData\Local\Temp\cc4CLsqf.s 			page 19


 578:Generated_Source\PSoC4/cyfitter_cfg.c **** 
 579:Generated_Source\PSoC4/cyfitter_cfg.c **** 
 580:Generated_Source\PSoC4/cyfitter_cfg.c **** 
 581:Generated_Source\PSoC4/cyfitter_cfg.c **** 		CYPACKED typedef struct {
 582:Generated_Source\PSoC4/cyfitter_cfg.c **** 			void CYFAR *address;
 583:Generated_Source\PSoC4/cyfitter_cfg.c **** 			uint16 size;
 584:Generated_Source\PSoC4/cyfitter_cfg.c **** 		} CYPACKED_ATTR cfg_memset_t;
 585:Generated_Source\PSoC4/cyfitter_cfg.c **** 
 586:Generated_Source\PSoC4/cyfitter_cfg.c **** 
 587:Generated_Source\PSoC4/cyfitter_cfg.c **** 		CYPACKED typedef struct {
 588:Generated_Source\PSoC4/cyfitter_cfg.c **** 			void CYFAR *dest;
 589:Generated_Source\PSoC4/cyfitter_cfg.c **** 			const void CYCODE *src;
 590:Generated_Source\PSoC4/cyfitter_cfg.c **** 			uint16 size;
 591:Generated_Source\PSoC4/cyfitter_cfg.c **** 		} CYPACKED_ATTR cfg_memcpy_t;
 592:Generated_Source\PSoC4/cyfitter_cfg.c **** 
 593:Generated_Source\PSoC4/cyfitter_cfg.c **** 		static const cfg_memset_t CYCODE cfg_memset_list[] = {
 594:Generated_Source\PSoC4/cyfitter_cfg.c **** 			/* address, size */
 595:Generated_Source\PSoC4/cyfitter_cfg.c **** 			{(void CYFAR *)(CYDEV_UDB_P0_U0_BASE), 128u},
 596:Generated_Source\PSoC4/cyfitter_cfg.c **** 			{(void CYFAR *)(CYDEV_UDB_P0_ROUTE_BASE), 256u},
 597:Generated_Source\PSoC4/cyfitter_cfg.c **** 			{(void CYFAR *)(CYDEV_UDB_P1_U1_BASE), 384u},
 598:Generated_Source\PSoC4/cyfitter_cfg.c **** 			{(void CYFAR *)(CYDEV_UDB_DSI0_BASE), 1024u},
 599:Generated_Source\PSoC4/cyfitter_cfg.c **** 		};
 600:Generated_Source\PSoC4/cyfitter_cfg.c **** 
 601:Generated_Source\PSoC4/cyfitter_cfg.c **** 		/* UDB_0_1_1_CONFIG Address: CYDEV_UDB_P0_U1_BASE Size (bytes): 128 */
 602:Generated_Source\PSoC4/cyfitter_cfg.c **** 		static const uint8 CYCODE BS_UDB_0_1_1_CONFIG_VAL[] = {
 603:Generated_Source\PSoC4/cyfitter_cfg.c **** 			0x00u, 0x00u, 0x01u, 0x00u, 0x00u, 0x00u, 0x00u, 0x00u, 0x20u, 0x00u, 0xC0u, 0x00u, 0x9Bu, 0x00u
 604:Generated_Source\PSoC4/cyfitter_cfg.c **** 			0x04u, 0x00u, 0x1Au, 0x02u, 0x24u, 0x38u, 0xC8u, 0x00u, 0xE4u, 0x00u, 0x10u, 0x40u, 0x02u, 0x0Du
 605:Generated_Source\PSoC4/cyfitter_cfg.c **** 			0x9Bu, 0x00u, 0x00u, 0x00u, 0x1Bu, 0x10u, 0x80u, 0x27u, 0x9Bu, 0x14u, 0x00u, 0x2Bu, 0x9Au, 0x00u
 606:Generated_Source\PSoC4/cyfitter_cfg.c **** 			0x1Eu, 0x00u, 0x01u, 0x3Cu, 0xE0u, 0x40u, 0x00u, 0x03u, 0x00u, 0x08u, 0x22u, 0x00u, 0x00u, 0x00u
 607:Generated_Source\PSoC4/cyfitter_cfg.c **** 			0x20u, 0x05u, 0x00u, 0x00u, 0x00u, 0xD1u, 0x02u, 0x00u, 0x07u, 0xFFu, 0xFFu, 0xFFu, 0x00u, 0xA0u
 608:Generated_Source\PSoC4/cyfitter_cfg.c **** 			0x18u, 0x00u, 0x80u, 0x00u, 0x05u, 0x00u, 0x00u, 0x00u, 0x04u, 0x04u, 0x04u, 0x04u, 0x11u, 0x33u
 609:Generated_Source\PSoC4/cyfitter_cfg.c **** 			0x40u, 0x00u, 0xC0u, 0x00u, 0x40u, 0x40u, 0xC0u, 0x00u, 0xC0u, 0x00u, 0xC0u, 0x00u, 0xC0u, 0x00u
 610:Generated_Source\PSoC4/cyfitter_cfg.c **** 			0x00u, 0x00u, 0x00u, 0x00u, 0x00u, 0x00u, 0x00u, 0x00u, 0x00u, 0x00u, 0x00u, 0x00u, 0x00u, 0x00u
 611:Generated_Source\PSoC4/cyfitter_cfg.c **** 
 612:Generated_Source\PSoC4/cyfitter_cfg.c **** 		/* UDB_0_0_1_CONFIG Address: CYDEV_UDB_P1_U0_BASE Size (bytes): 128 */
 613:Generated_Source\PSoC4/cyfitter_cfg.c **** 		static const uint8 CYCODE BS_UDB_0_0_1_CONFIG_VAL[] = {
 614:Generated_Source\PSoC4/cyfitter_cfg.c **** 			0x00u, 0x84u, 0x00u, 0x00u, 0x88u, 0x84u, 0x02u, 0x00u, 0x88u, 0x80u, 0x00u, 0x04u, 0x93u, 0x60u
 615:Generated_Source\PSoC4/cyfitter_cfg.c **** 			0x00u, 0x84u, 0x00u, 0x00u, 0x61u, 0x01u, 0x98u, 0x00u, 0xCCu, 0x04u, 0x03u, 0x00u, 0x8Au, 0x07u
 616:Generated_Source\PSoC4/cyfitter_cfg.c **** 			0x8Au, 0x00u, 0x00u, 0x00u, 0x42u, 0x56u, 0x00u, 0x09u, 0x02u, 0x0Au, 0x88u, 0x10u, 0x88u, 0x04u
 617:Generated_Source\PSoC4/cyfitter_cfg.c **** 			0x00u, 0x08u, 0x0Fu, 0x02u, 0x70u, 0x7Fu, 0x83u, 0x80u, 0x00u, 0x20u, 0x28u, 0x00u, 0x00u, 0x00u
 618:Generated_Source\PSoC4/cyfitter_cfg.c **** 			0x32u, 0x01u, 0x40u, 0x00u, 0x05u, 0x00u, 0x00u, 0x00u, 0x00u, 0xFFu, 0xFFu, 0xFFu, 0x02u, 0x00u
 619:Generated_Source\PSoC4/cyfitter_cfg.c **** 			0x04u, 0x00u, 0x00u, 0x00u, 0x00u, 0x00u, 0x02u, 0x2Cu, 0x04u, 0x04u, 0x04u, 0x04u, 0x11u, 0x11u
 620:Generated_Source\PSoC4/cyfitter_cfg.c **** 			0x00u, 0x00u, 0xC0u, 0x00u, 0x40u, 0x01u, 0x10u, 0x11u, 0xC0u, 0x01u, 0x00u, 0x11u, 0x40u, 0x01u
 621:Generated_Source\PSoC4/cyfitter_cfg.c **** 			0x00u, 0x00u, 0x00u, 0x00u, 0x00u, 0x00u, 0x00u, 0x00u, 0x00u, 0x00u, 0x00u, 0x00u, 0x00u, 0x00u
 622:Generated_Source\PSoC4/cyfitter_cfg.c **** 
 623:Generated_Source\PSoC4/cyfitter_cfg.c **** 		static const cfg_memcpy_t CYCODE cfg_memcpy_list [] = {
 624:Generated_Source\PSoC4/cyfitter_cfg.c **** 			/* dest, src, size */
 625:Generated_Source\PSoC4/cyfitter_cfg.c **** 			{(void CYFAR *)(CYDEV_UDB_P0_U1_BASE), BS_UDB_0_1_1_CONFIG_VAL, 128u},
 626:Generated_Source\PSoC4/cyfitter_cfg.c **** 			{(void CYFAR *)(CYDEV_UDB_P1_U0_BASE), BS_UDB_0_0_1_CONFIG_VAL, 128u},
 627:Generated_Source\PSoC4/cyfitter_cfg.c **** 		};
 628:Generated_Source\PSoC4/cyfitter_cfg.c **** 
 629:Generated_Source\PSoC4/cyfitter_cfg.c **** 		uint8 CYDATA i;
 630:Generated_Source\PSoC4/cyfitter_cfg.c **** 
 631:Generated_Source\PSoC4/cyfitter_cfg.c **** 		/* Zero out critical memory blocks before beginning configuration */
 632:Generated_Source\PSoC4/cyfitter_cfg.c **** 		for (i = 0u; i < (sizeof(cfg_memset_list)/sizeof(cfg_memset_list[0])); i++)
 407              		.loc 1 632 0
 408 0158 0024     		movs	r4, #0
ARM GAS  C:\Users\Toreckk\AppData\Local\Temp\cc4CLsqf.s 			page 20


 409 015a 0FE0     		b	.L15
 410              	.LVL26:
 411              	.L16:
 412              	.LBB4:
 633:Generated_Source\PSoC4/cyfitter_cfg.c **** 		{
 634:Generated_Source\PSoC4/cyfitter_cfg.c **** 			const cfg_memset_t CYCODE * CYDATA ms = &cfg_memset_list[i];
 635:Generated_Source\PSoC4/cyfitter_cfg.c **** 			CYMEMZERO(ms->address, (size_t)(uint32)(ms->size));
 413              		.loc 1 635 0 discriminator 3
 414 015c 4148     		ldr	r0, .L19+8
 415 015e 6200     		lsls	r2, r4, #1
 416 0160 1319     		adds	r3, r2, r4
 417 0162 5900     		lsls	r1, r3, #1
 418 0164 0B00     		movs	r3, r1
 419 0166 4118     		adds	r1, r0, r1
 420 0168 8988     		ldrh	r1, [r1, #4]
 421 016a 1A5A     		ldrh	r2, [r3, r0]
 422 016c C318     		adds	r3, r0, r3
 423 016e 5888     		ldrh	r0, [r3, #2]
 424 0170 0004     		lsls	r0, r0, #16
 425 0172 1043     		orrs	r0, r2
 426 0174 FFF7FEFF 		bl	CYMEMZERO
 427              	.LVL27:
 428              	.LBE4:
 632:Generated_Source\PSoC4/cyfitter_cfg.c **** 		{
 429              		.loc 1 632 0 discriminator 3
 430 0178 0134     		adds	r4, r4, #1
 431              	.LVL28:
 432 017a E4B2     		uxtb	r4, r4
 433              	.LVL29:
 434              	.L15:
 632:Generated_Source\PSoC4/cyfitter_cfg.c **** 		{
 435              		.loc 1 632 0 is_stmt 0 discriminator 1
 436 017c 032C     		cmp	r4, #3
 437 017e EDD9     		bls	.L16
 438 0180 0024     		movs	r4, #0
 439              	.LVL30:
 440 0182 14E0     		b	.L17
 441              	.LVL31:
 442              	.L18:
 443              	.LBB5:
 636:Generated_Source\PSoC4/cyfitter_cfg.c **** 		}
 637:Generated_Source\PSoC4/cyfitter_cfg.c **** 
 638:Generated_Source\PSoC4/cyfitter_cfg.c **** 		/* Copy device configuration data into registers */
 639:Generated_Source\PSoC4/cyfitter_cfg.c **** 		for (i = 0u; i < (sizeof(cfg_memcpy_list)/sizeof(cfg_memcpy_list[0])); i++)
 640:Generated_Source\PSoC4/cyfitter_cfg.c **** 		{
 641:Generated_Source\PSoC4/cyfitter_cfg.c **** 			const cfg_memcpy_t CYCODE * CYDATA mc = &cfg_memcpy_list[i];
 642:Generated_Source\PSoC4/cyfitter_cfg.c **** 			void * CYDATA destPtr = mc->dest;
 444              		.loc 1 642 0 is_stmt 1 discriminator 3
 445 0184 374E     		ldr	r6, .L19+8
 446 0186 A200     		lsls	r2, r4, #2
 447 0188 1119     		adds	r1, r2, r4
 448 018a 4B00     		lsls	r3, r1, #1
 449 018c F318     		adds	r3, r6, r3
 450 018e 198B     		ldrh	r1, [r3, #24]
 451 0190 588B     		ldrh	r0, [r3, #26]
 452 0192 0004     		lsls	r0, r0, #16
 453 0194 0843     		orrs	r0, r1
ARM GAS  C:\Users\Toreckk\AppData\Local\Temp\cc4CLsqf.s 			page 21


 454              	.LVL32:
 643:Generated_Source\PSoC4/cyfitter_cfg.c **** 			const void CYCODE * CYDATA srcPtr = mc->src;
 455              		.loc 1 643 0 discriminator 3
 456 0196 9D8B     		ldrh	r5, [r3, #28]
 457 0198 D98B     		ldrh	r1, [r3, #30]
 458 019a 0904     		lsls	r1, r1, #16
 459 019c 2943     		orrs	r1, r5
 460              	.LVL33:
 644:Generated_Source\PSoC4/cyfitter_cfg.c **** 			uint16 CYDATA numBytes = mc->size;
 461              		.loc 1 644 0 discriminator 3
 462 019e 1319     		adds	r3, r2, r4
 463 01a0 5A00     		lsls	r2, r3, #1
 464 01a2 B218     		adds	r2, r6, r2
 465 01a4 128C     		ldrh	r2, [r2, #32]
 466              	.LVL34:
 645:Generated_Source\PSoC4/cyfitter_cfg.c **** 			CYCONFIGCPYCODE(destPtr, srcPtr, numBytes);
 467              		.loc 1 645 0 discriminator 3
 468 01a6 FFF7FEFF 		bl	CYCONFIGCPYCODE
 469              	.LVL35:
 470              	.LBE5:
 639:Generated_Source\PSoC4/cyfitter_cfg.c **** 		{
 471              		.loc 1 639 0 discriminator 3
 472 01aa 0134     		adds	r4, r4, #1
 473              	.LVL36:
 474 01ac E4B2     		uxtb	r4, r4
 475              	.LVL37:
 476              	.L17:
 639:Generated_Source\PSoC4/cyfitter_cfg.c **** 		{
 477              		.loc 1 639 0 is_stmt 0 discriminator 1
 478 01ae 012C     		cmp	r4, #1
 479 01b0 E8D9     		bls	.L18
 646:Generated_Source\PSoC4/cyfitter_cfg.c **** 		}
 647:Generated_Source\PSoC4/cyfitter_cfg.c **** 
 648:Generated_Source\PSoC4/cyfitter_cfg.c **** 		cfg_write_bytes32(cy_cfg_addr_table, cy_cfg_data_table);
 480              		.loc 1 648 0 is_stmt 1
 481 01b2 2C49     		ldr	r1, .L19+8
 482 01b4 2C31     		adds	r1, r1, #44
 483 01b6 2C48     		ldr	r0, .L19+12
 484 01b8 7030     		adds	r0, r0, #112
 485 01ba FFF7FEFF 		bl	cfg_write_bytes32
 486              	.LVL38:
 649:Generated_Source\PSoC4/cyfitter_cfg.c **** 
 650:Generated_Source\PSoC4/cyfitter_cfg.c **** 		/* HSIOM Starting address: CYDEV_HSIOM_BASE */
 651:Generated_Source\PSoC4/cyfitter_cfg.c **** 		CY_SET_REG32((void *)(CYDEV_HSIOM_BASE), 0xEE330300u);
 487              		.loc 1 651 0
 488 01be 2B4A     		ldr	r2, .L19+16
 489 01c0 2B4B     		ldr	r3, .L19+20
 490 01c2 1A60     		str	r2, [r3]
 652:Generated_Source\PSoC4/cyfitter_cfg.c **** 		CY_SET_REG32((void *)(CYREG_HSIOM_PORT_SEL2), 0x00000003u);
 491              		.loc 1 652 0
 492 01c4 0322     		movs	r2, #3
 493 01c6 2B4B     		ldr	r3, .L19+24
 494 01c8 1A60     		str	r2, [r3]
 653:Generated_Source\PSoC4/cyfitter_cfg.c **** 		CY_SET_REG32((void *)(CYREG_HSIOM_PORT_SEL3), 0x38000003u);
 495              		.loc 1 653 0
 496 01ca 2B4A     		ldr	r2, .L19+28
 497 01cc 2B4B     		ldr	r3, .L19+32
ARM GAS  C:\Users\Toreckk\AppData\Local\Temp\cc4CLsqf.s 			page 22


 498 01ce 1A60     		str	r2, [r3]
 654:Generated_Source\PSoC4/cyfitter_cfg.c **** 
 655:Generated_Source\PSoC4/cyfitter_cfg.c **** 		/* UDB_PA_0 Starting address: CYDEV_UDB_PA0_BASE */
 656:Generated_Source\PSoC4/cyfitter_cfg.c **** 		CY_SET_REG32((void *)(CYDEV_UDB_PA0_BASE), 0x00990000u);
 499              		.loc 1 656 0
 500 01d0 9923     		movs	r3, #153
 501 01d2 1B04     		lsls	r3, r3, #16
 502 01d4 2A4A     		ldr	r2, .L19+36
 503 01d6 1360     		str	r3, [r2]
 657:Generated_Source\PSoC4/cyfitter_cfg.c **** 		CY_SET_REG32((void *)(CYREG_UDB_PA0_CFG8), 0x0B100000u);
 504              		.loc 1 657 0
 505 01d8 B121     		movs	r1, #177
 506 01da 0905     		lsls	r1, r1, #20
 507 01dc 294A     		ldr	r2, .L19+40
 508 01de 1160     		str	r1, [r2]
 658:Generated_Source\PSoC4/cyfitter_cfg.c **** 
 659:Generated_Source\PSoC4/cyfitter_cfg.c **** 		/* UDB_PA_1 Starting address: CYDEV_UDB_PA1_BASE */
 660:Generated_Source\PSoC4/cyfitter_cfg.c **** 		CY_SET_REG32((void *)(CYDEV_UDB_PA1_BASE), 0x00990000u);
 509              		.loc 1 660 0
 510 01e0 294A     		ldr	r2, .L19+44
 511 01e2 1360     		str	r3, [r2]
 661:Generated_Source\PSoC4/cyfitter_cfg.c **** 
 662:Generated_Source\PSoC4/cyfitter_cfg.c **** 		/* UDB_PA_2 Starting address: CYDEV_UDB_PA2_BASE */
 663:Generated_Source\PSoC4/cyfitter_cfg.c **** 		CY_SET_REG32((void *)(CYDEV_UDB_PA2_BASE), 0x00990000u);
 512              		.loc 1 663 0
 513 01e4 294A     		ldr	r2, .L19+48
 514 01e6 1360     		str	r3, [r2]
 664:Generated_Source\PSoC4/cyfitter_cfg.c **** 		CY_SET_REG32((void *)(CYREG_UDB_PA2_CFG8), 0x00540000u);
 515              		.loc 1 664 0
 516 01e8 A821     		movs	r1, #168
 517 01ea C903     		lsls	r1, r1, #15
 518 01ec 284A     		ldr	r2, .L19+52
 519 01ee 1160     		str	r1, [r2]
 665:Generated_Source\PSoC4/cyfitter_cfg.c **** 
 666:Generated_Source\PSoC4/cyfitter_cfg.c **** 		/* UDB_PA_3 Starting address: CYDEV_UDB_PA3_BASE */
 667:Generated_Source\PSoC4/cyfitter_cfg.c **** 		CY_SET_REG32((void *)(CYDEV_UDB_PA3_BASE), 0x00990000u);
 520              		.loc 1 667 0
 521 01f0 284A     		ldr	r2, .L19+56
 522 01f2 1360     		str	r3, [r2]
 668:Generated_Source\PSoC4/cyfitter_cfg.c **** 		CY_SET_REG32((void *)(CYREG_UDB_PA3_CFG8), 0xC0030000u);
 523              		.loc 1 668 0
 524 01f4 284A     		ldr	r2, .L19+60
 525 01f6 294B     		ldr	r3, .L19+64
 526 01f8 1A60     		str	r2, [r3]
 669:Generated_Source\PSoC4/cyfitter_cfg.c **** 
 670:Generated_Source\PSoC4/cyfitter_cfg.c **** 		/* TCPWM_CNT0 Starting address: CYDEV_TCPWM_CNT0_TR_CTRL0 */
 671:Generated_Source\PSoC4/cyfitter_cfg.c **** 		CY_SET_REG32((void *)(CYREG_TCPWM_CNT0_TR_CTRL0), 0x00022212u);
 527              		.loc 1 671 0
 528 01fa 294A     		ldr	r2, .L19+68
 529 01fc 294B     		ldr	r3, .L19+72
 530 01fe 1A60     		str	r2, [r3]
 672:Generated_Source\PSoC4/cyfitter_cfg.c **** 
 673:Generated_Source\PSoC4/cyfitter_cfg.c **** 		/* INT_SELECT Starting address: CYDEV_CPUSS_INT_SEL */
 674:Generated_Source\PSoC4/cyfitter_cfg.c **** 		CY_SET_REG32((void *)(CYREG_CPUSS_INT_SEL), 0x00000006u);
 531              		.loc 1 674 0
 532 0200 0623     		movs	r3, #6
 533 0202 294A     		ldr	r2, .L19+76
ARM GAS  C:\Users\Toreckk\AppData\Local\Temp\cc4CLsqf.s 			page 23


 534 0204 1360     		str	r3, [r2]
 675:Generated_Source\PSoC4/cyfitter_cfg.c **** 
 676:Generated_Source\PSoC4/cyfitter_cfg.c **** 		/* INT_CONFIG Starting address: CYDEV_UDB_INT_CFG */
 677:Generated_Source\PSoC4/cyfitter_cfg.c **** 		CY_SET_REG32((void *)(CYREG_UDB_INT_CFG), 0x00000006u);
 535              		.loc 1 677 0
 536 0206 294A     		ldr	r2, .L19+80
 537 0208 1360     		str	r3, [r2]
 678:Generated_Source\PSoC4/cyfitter_cfg.c **** 
 679:Generated_Source\PSoC4/cyfitter_cfg.c **** 		/* Enable UDB array and digital routing */
 680:Generated_Source\PSoC4/cyfitter_cfg.c **** 		CY_SET_XTND_REG8((void *)CYREG_UDB_UDBIF_WAIT_CFG, (uint8)((CY_GET_XTND_REG8((void *)CYREG_UDB_UD
 538              		.loc 1 680 0
 539 020a 2949     		ldr	r1, .L19+84
 540 020c 0B78     		ldrb	r3, [r1]
 541 020e 3C22     		movs	r2, #60
 542 0210 9343     		bics	r3, r2
 543 0212 1422     		movs	r2, #20
 544 0214 1343     		orrs	r3, r2
 545 0216 DBB2     		uxtb	r3, r3
 546 0218 0B70     		strb	r3, [r1]
 681:Generated_Source\PSoC4/cyfitter_cfg.c **** 		CY_SET_XTND_REG8((void *)CYREG_UDB_UDBIF_BANK_CTL, (uint8)(CY_GET_XTND_REG8((void *)CYREG_UDB_UDB
 547              		.loc 1 681 0
 548 021a 264A     		ldr	r2, .L19+88
 549 021c 1178     		ldrb	r1, [r2]
 550 021e 1623     		movs	r3, #22
 551 0220 0B43     		orrs	r3, r1
 552 0222 DBB2     		uxtb	r3, r3
 553 0224 1370     		strb	r3, [r2]
 554              	.LBE3:
 682:Generated_Source\PSoC4/cyfitter_cfg.c **** 	}
 683:Generated_Source\PSoC4/cyfitter_cfg.c **** 
 684:Generated_Source\PSoC4/cyfitter_cfg.c **** 	/* Perform second pass device configuration. These items must be configured in specific order afte
 685:Generated_Source\PSoC4/cyfitter_cfg.c **** 	/* IOPINS0_0 Starting address: CYDEV_GPIO_PRT0_BASE */
 686:Generated_Source\PSoC4/cyfitter_cfg.c **** 	CY_SET_REG32((void *)(CYDEV_GPIO_PRT0_BASE), 0x00000034u);
 555              		.loc 1 686 0
 556 0226 3422     		movs	r2, #52
 557 0228 234B     		ldr	r3, .L19+92
 558 022a 1A60     		str	r2, [r3]
 687:Generated_Source\PSoC4/cyfitter_cfg.c **** 	CY_SET_REG32((void *)(CYREG_GPIO_PRT0_PC), 0x00DB6189u);
 559              		.loc 1 687 0
 560 022c 234A     		ldr	r2, .L19+96
 561 022e 244B     		ldr	r3, .L19+100
 562 0230 1A60     		str	r2, [r3]
 688:Generated_Source\PSoC4/cyfitter_cfg.c **** 
 689:Generated_Source\PSoC4/cyfitter_cfg.c **** 	/* IOPINS0_1 Starting address: CYDEV_GPIO_PRT1_BASE */
 690:Generated_Source\PSoC4/cyfitter_cfg.c **** 	CY_SET_REG32((void *)(CYREG_GPIO_PRT1_PC), 0x00200031u);
 563              		.loc 1 690 0
 564 0232 244A     		ldr	r2, .L19+104
 565 0234 244B     		ldr	r3, .L19+108
 566 0236 1A60     		str	r2, [r3]
 691:Generated_Source\PSoC4/cyfitter_cfg.c **** 
 692:Generated_Source\PSoC4/cyfitter_cfg.c **** 	/* IOPINS0_2 Starting address: CYDEV_GPIO_PRT2_BASE */
 693:Generated_Source\PSoC4/cyfitter_cfg.c **** 	CY_SET_REG32((void *)(CYDEV_GPIO_PRT2_BASE), 0x00000001u);
 567              		.loc 1 693 0
 568 0238 0122     		movs	r2, #1
 569 023a 244B     		ldr	r3, .L19+112
 570 023c 1A60     		str	r2, [r3]
 694:Generated_Source\PSoC4/cyfitter_cfg.c **** 	CY_SET_REG32((void *)(CYREG_GPIO_PRT2_PC), 0x000001B6u);
ARM GAS  C:\Users\Toreckk\AppData\Local\Temp\cc4CLsqf.s 			page 24


 571              		.loc 1 694 0
 572 023e B632     		adds	r2, r2, #182
 573 0240 FF32     		adds	r2, r2, #255
 574 0242 234B     		ldr	r3, .L19+116
 575 0244 1A60     		str	r2, [r3]
 695:Generated_Source\PSoC4/cyfitter_cfg.c **** 
 696:Generated_Source\PSoC4/cyfitter_cfg.c **** 	/* IOPINS0_3 Starting address: CYDEV_GPIO_PRT3_BASE */
 697:Generated_Source\PSoC4/cyfitter_cfg.c **** 	CY_SET_REG32((void *)(CYDEV_GPIO_PRT3_BASE), 0x000000C1u);
 576              		.loc 1 697 0
 577 0246 F53A     		subs	r2, r2, #245
 578 0248 224B     		ldr	r3, .L19+120
 579 024a 1A60     		str	r2, [r3]
 698:Generated_Source\PSoC4/cyfitter_cfg.c **** 	CY_SET_REG32((void *)(CYREG_GPIO_PRT3_PC), 0x00D801B6u);
 580              		.loc 1 698 0
 581 024c 224A     		ldr	r2, .L19+124
 582 024e 234B     		ldr	r3, .L19+128
 583 0250 1A60     		str	r2, [r3]
 699:Generated_Source\PSoC4/cyfitter_cfg.c **** 
 700:Generated_Source\PSoC4/cyfitter_cfg.c **** 
 701:Generated_Source\PSoC4/cyfitter_cfg.c **** 	/* Setup clocks based on selections from Clock DWR */
 702:Generated_Source\PSoC4/cyfitter_cfg.c **** 	ClockSetup();
 584              		.loc 1 702 0
 585 0252 FFF7D5FE 		bl	ClockSetup
 586              	.LVL39:
 703:Generated_Source\PSoC4/cyfitter_cfg.c **** 
 704:Generated_Source\PSoC4/cyfitter_cfg.c **** 	/* Perform basic analog initialization to defaults */
 705:Generated_Source\PSoC4/cyfitter_cfg.c **** 	AnalogSetDefault();
 587              		.loc 1 705 0
 588 0256 FFF7FEFF 		bl	AnalogSetDefault
 589              	.LVL40:
 706:Generated_Source\PSoC4/cyfitter_cfg.c **** 
 707:Generated_Source\PSoC4/cyfitter_cfg.c **** }
 590              		.loc 1 707 0
 591              		@ sp needed
 592              	.LVL41:
 593 025a 70BD     		pop	{r4, r5, r6, pc}
 594              	.L20:
 595              		.align	2
 596              	.L19:
 597 025c 6CF02E40 		.word	1076818028
 598 0260 1C700F40 		.word	1074753564
 599 0264 00000000 		.word	.LANCHOR0
 600 0268 80010000 		.word	.LANCHOR1
 601 026c 000333EE 		.word	-298646784
 602 0270 00000240 		.word	1073872896
 603 0274 00020240 		.word	1073873408
 604 0278 03000038 		.word	939524099
 605 027c 00030240 		.word	1073873664
 606 0280 00500F40 		.word	1074745344
 607 0284 08500F40 		.word	1074745352
 608 0288 10500F40 		.word	1074745360
 609 028c 20500F40 		.word	1074745376
 610 0290 28500F40 		.word	1074745384
 611 0294 30500F40 		.word	1074745392
 612 0298 000003C0 		.word	-1073545216
 613 029c 38500F40 		.word	1074745400
 614 02a0 12220200 		.word	139794
ARM GAS  C:\Users\Toreckk\AppData\Local\Temp\cc4CLsqf.s 			page 25


 615 02a4 20012040 		.word	1075839264
 616 02a8 20001040 		.word	1074790432
 617 02ac 00800F40 		.word	1074757632
 618 02b0 01700F40 		.word	1074753537
 619 02b4 00700F40 		.word	1074753536
 620 02b8 00000440 		.word	1074003968
 621 02bc 8961DB00 		.word	14377353
 622 02c0 08000440 		.word	1074003976
 623 02c4 31002000 		.word	2097201
 624 02c8 08010440 		.word	1074004232
 625 02cc 00020440 		.word	1074004480
 626 02d0 08020440 		.word	1074004488
 627 02d4 00030440 		.word	1074004736
 628 02d8 B601D800 		.word	14156214
 629 02dc 08030440 		.word	1074004744
 630              		.cfi_endproc
 631              	.LFE8:
 632              		.size	cyfitter_cfg, .-cyfitter_cfg
 633              		.section	.rodata
 634              		.align	2
 635              		.set	.LANCHOR0,. + 0
 636              		.set	.LANCHOR1,. + 384
 637              		.type	cfg_memset_list.4912, %object
 638              		.size	cfg_memset_list.4912, 24
 639              	cfg_memset_list.4912:
 640 0000 00300F40 		.word	1074737152
 641 0004 8000     		.short	128
 642 0006 00310F40 		.4byte	1074737408
 643 000a 0001     		.short	256
 644 000c 80320F40 		.word	1074737792
 645 0010 8001     		.short	384
 646 0012 00400F40 		.4byte	1074741248
 647 0016 0004     		.short	1024
 648              		.type	cfg_memcpy_list.4915, %object
 649              		.size	cfg_memcpy_list.4915, 20
 650              	cfg_memcpy_list.4915:
 651 0018 80300F40 		.word	1074737280
 652 001c 18020000 		.word	BS_UDB_0_1_1_CONFIG_VAL.4913
 653 0020 8000     		.short	128
 654 0022 00320F40 		.4byte	1074737664
 655 0026 98020000 		.4byte	BS_UDB_0_0_1_CONFIG_VAL.4914
 656 002a 8000     		.short	128
 657              		.type	cy_cfg_data_table.4902, %object
 658              		.size	cy_cfg_data_table.4902, 450
 659              	cy_cfg_data_table.4902:
 660 002c 81       		.byte	-127
 661 002d 0D       		.byte	13
 662 002e 82       		.byte	-126
 663 002f 1F       		.byte	31
 664 0030 00       		.byte	0
 665 0031 02       		.byte	2
 666 0032 02       		.byte	2
 667 0033 0D       		.byte	13
 668 0034 04       		.byte	4
 669 0035 09       		.byte	9
 670 0036 06       		.byte	6
 671 0037 06       		.byte	6
ARM GAS  C:\Users\Toreckk\AppData\Local\Temp\cc4CLsqf.s 			page 26


 672 0038 07       		.byte	7
 673 0039 07       		.byte	7
 674 003a 14       		.byte	20
 675 003b 05       		.byte	5
 676 003c 16       		.byte	22
 677 003d 0A       		.byte	10
 678 003e 17       		.byte	23
 679 003f 01       		.byte	1
 680 0040 19       		.byte	25
 681 0041 04       		.byte	4
 682 0042 1C       		.byte	28
 683 0043 03       		.byte	3
 684 0044 1E       		.byte	30
 685 0045 0C       		.byte	12
 686 0046 2F       		.byte	47
 687 0047 08       		.byte	8
 688 0048 30       		.byte	48
 689 0049 0F       		.byte	15
 690 004a 31       		.byte	49
 691 004b 04       		.byte	4
 692 004c 33       		.byte	51
 693 004d 08       		.byte	8
 694 004e 35       		.byte	53
 695 004f 02       		.byte	2
 696 0050 37       		.byte	55
 697 0051 01       		.byte	1
 698 0052 3A       		.byte	58
 699 0053 02       		.byte	2
 700 0054 54       		.byte	84
 701 0055 40       		.byte	64
 702 0056 56       		.byte	86
 703 0057 04       		.byte	4
 704 0058 58       		.byte	88
 705 0059 04       		.byte	4
 706 005a 59       		.byte	89
 707 005b 04       		.byte	4
 708 005c 5B       		.byte	91
 709 005d 04       		.byte	4
 710 005e 5C       		.byte	92
 711 005f 31       		.byte	49
 712 0060 5D       		.byte	93
 713 0061 10       		.byte	16
 714 0062 5F       		.byte	95
 715 0063 01       		.byte	1
 716 0064 01       		.byte	1
 717 0065 02       		.byte	2
 718 0066 03       		.byte	3
 719 0067 20       		.byte	32
 720 0068 04       		.byte	4
 721 0069 02       		.byte	2
 722 006a 05       		.byte	5
 723 006b 10       		.byte	16
 724 006c 06       		.byte	6
 725 006d 40       		.byte	64
 726 006e 07       		.byte	7
 727 006f 02       		.byte	2
 728 0070 09       		.byte	9
ARM GAS  C:\Users\Toreckk\AppData\Local\Temp\cc4CLsqf.s 			page 27


 729 0071 88       		.byte	-120
 730 0072 0D       		.byte	13
 731 0073 A8       		.byte	-88
 732 0074 0E       		.byte	14
 733 0075 40       		.byte	64
 734 0076 15       		.byte	21
 735 0077 41       		.byte	65
 736 0078 17       		.byte	23
 737 0079 14       		.byte	20
 738 007a 19       		.byte	25
 739 007b 02       		.byte	2
 740 007c 1C       		.byte	28
 741 007d 10       		.byte	16
 742 007e 1D       		.byte	29
 743 007f 10       		.byte	16
 744 0080 1E       		.byte	30
 745 0081 40       		.byte	64
 746 0082 20       		.byte	32
 747 0083 42       		.byte	66
 748 0084 22       		.byte	34
 749 0085 14       		.byte	20
 750 0086 23       		.byte	35
 751 0087 20       		.byte	32
 752 0088 24       		.byte	36
 753 0089 04       		.byte	4
 754 008a 26       		.byte	38
 755 008b 08       		.byte	8
 756 008c 27       		.byte	39
 757 008d 01       		.byte	1
 758 008e 2A       		.byte	42
 759 008f 80       		.byte	-128
 760 0090 2F       		.byte	47
 761 0091 28       		.byte	40
 762 0092 32       		.byte	50
 763 0093 14       		.byte	20
 764 0094 35       		.byte	53
 765 0095 40       		.byte	64
 766 0096 36       		.byte	54
 767 0097 08       		.byte	8
 768 0098 37       		.byte	55
 769 0099 21       		.byte	33
 770 009a 39       		.byte	57
 771 009b 04       		.byte	4
 772 009c 3F       		.byte	63
 773 009d 80       		.byte	-128
 774 009e 47       		.byte	71
 775 009f 20       		.byte	32
 776 00a0 4D       		.byte	77
 777 00a1 04       		.byte	4
 778 00a2 4F       		.byte	79
 779 00a3 81       		.byte	-127
 780 00a4 57       		.byte	87
 781 00a5 40       		.byte	64
 782 00a6 5C       		.byte	92
 783 00a7 44       		.byte	68
 784 00a8 5F       		.byte	95
 785 00a9 01       		.byte	1
ARM GAS  C:\Users\Toreckk\AppData\Local\Temp\cc4CLsqf.s 			page 28


 786 00aa 60       		.byte	96
 787 00ab 10       		.byte	16
 788 00ac 62       		.byte	98
 789 00ad 60       		.byte	96
 790 00ae 63       		.byte	99
 791 00af 40       		.byte	64
 792 00b0 76       		.byte	118
 793 00b1 80       		.byte	-128
 794 00b2 82       		.byte	-126
 795 00b3 08       		.byte	8
 796 00b4 87       		.byte	-121
 797 00b5 40       		.byte	64
 798 00b6 C0       		.byte	-64
 799 00b7 DC       		.byte	-36
 800 00b8 C2       		.byte	-62
 801 00b9 F5       		.byte	-11
 802 00ba C4       		.byte	-60
 803 00bb F0       		.byte	-16
 804 00bc CA       		.byte	-54
 805 00bd 68       		.byte	104
 806 00be CC       		.byte	-52
 807 00bf F6       		.byte	-10
 808 00c0 CE       		.byte	-50
 809 00c1 12       		.byte	18
 810 00c2 D0       		.byte	-48
 811 00c3 20       		.byte	32
 812 00c4 D2       		.byte	-46
 813 00c5 10       		.byte	16
 814 00c6 D6       		.byte	-42
 815 00c7 D0       		.byte	-48
 816 00c8 D8       		.byte	-40
 817 00c9 0F       		.byte	15
 818 00ca C0       		.byte	-64
 819 00cb 32       		.byte	50
 820 00cc C1       		.byte	-63
 821 00cd 01       		.byte	1
 822 00ce C2       		.byte	-62
 823 00cf 40       		.byte	64
 824 00d0 C4       		.byte	-60
 825 00d1 06       		.byte	6
 826 00d2 C5       		.byte	-59
 827 00d3 BE       		.byte	-66
 828 00d4 C6       		.byte	-58
 829 00d5 F0       		.byte	-16
 830 00d6 C7       		.byte	-57
 831 00d7 DC       		.byte	-36
 832 00d8 C8       		.byte	-56
 833 00d9 3B       		.byte	59
 834 00da C9       		.byte	-55
 835 00db FF       		.byte	-1
 836 00dc CA       		.byte	-54
 837 00dd FF       		.byte	-1
 838 00de CB       		.byte	-53
 839 00df FF       		.byte	-1
 840 00e0 CC       		.byte	-52
 841 00e1 23       		.byte	35
 842 00e2 CE       		.byte	-50
ARM GAS  C:\Users\Toreckk\AppData\Local\Temp\cc4CLsqf.s 			page 29


 843 00e3 F0       		.byte	-16
 844 00e4 CF       		.byte	-49
 845 00e5 08       		.byte	8
 846 00e6 D0       		.byte	-48
 847 00e7 04       		.byte	4
 848 00e8 D4       		.byte	-44
 849 00e9 09       		.byte	9
 850 00ea D6       		.byte	-42
 851 00eb 04       		.byte	4
 852 00ec DA       		.byte	-38
 853 00ed 04       		.byte	4
 854 00ee DB       		.byte	-37
 855 00ef 04       		.byte	4
 856 00f0 DD       		.byte	-35
 857 00f1 11       		.byte	17
 858 00f2 DF       		.byte	-33
 859 00f3 01       		.byte	1
 860 00f4 E2       		.byte	-30
 861 00f5 C0       		.byte	-64
 862 00f6 E4       		.byte	-28
 863 00f7 40       		.byte	64
 864 00f8 E5       		.byte	-27
 865 00f9 01       		.byte	1
 866 00fa E6       		.byte	-26
 867 00fb 10       		.byte	16
 868 00fc E7       		.byte	-25
 869 00fd 11       		.byte	17
 870 00fe E8       		.byte	-24
 871 00ff C0       		.byte	-64
 872 0100 E9       		.byte	-23
 873 0101 01       		.byte	1
 874 0102 EB       		.byte	-21
 875 0103 11       		.byte	17
 876 0104 EC       		.byte	-20
 877 0105 40       		.byte	64
 878 0106 ED       		.byte	-19
 879 0107 01       		.byte	1
 880 0108 EE       		.byte	-18
 881 0109 40       		.byte	64
 882 010a EF       		.byte	-17
 883 010b 01       		.byte	1
 884 010c 05       		.byte	5
 885 010d 50       		.byte	80
 886 010e 07       		.byte	7
 887 010f 10       		.byte	16
 888 0110 0D       		.byte	13
 889 0111 28       		.byte	40
 890 0112 0E       		.byte	14
 891 0113 02       		.byte	2
 892 0114 14       		.byte	20
 893 0115 10       		.byte	16
 894 0116 15       		.byte	21
 895 0117 58       		.byte	88
 896 0118 17       		.byte	23
 897 0119 02       		.byte	2
 898 011a 1D       		.byte	29
 899 011b E8       		.byte	-24
ARM GAS  C:\Users\Toreckk\AppData\Local\Temp\cc4CLsqf.s 			page 30


 900 011c 1F       		.byte	31
 901 011d 28       		.byte	40
 902 011e 25       		.byte	37
 903 011f 10       		.byte	16
 904 0120 26       		.byte	38
 905 0121 08       		.byte	8
 906 0122 27       		.byte	39
 907 0123 49       		.byte	73
 908 0124 2D       		.byte	45
 909 0125 40       		.byte	64
 910 0126 2F       		.byte	47
 911 0127 28       		.byte	40
 912 0128 35       		.byte	53
 913 0129 50       		.byte	80
 914 012a 36       		.byte	54
 915 012b 01       		.byte	1
 916 012c 37       		.byte	55
 917 012d 08       		.byte	8
 918 012e 3C       		.byte	60
 919 012f 80       		.byte	-128
 920 0130 3E       		.byte	62
 921 0131 16       		.byte	22
 922 0132 41       		.byte	65
 923 0133 A8       		.byte	-88
 924 0134 43       		.byte	67
 925 0135 01       		.byte	1
 926 0136 45       		.byte	69
 927 0137 A8       		.byte	-88
 928 0138 47       		.byte	71
 929 0139 01       		.byte	1
 930 013a 48       		.byte	72
 931 013b 40       		.byte	64
 932 013c 49       		.byte	73
 933 013d 24       		.byte	36
 934 013e 4F       		.byte	79
 935 013f 80       		.byte	-128
 936 0140 50       		.byte	80
 937 0141 01       		.byte	1
 938 0142 51       		.byte	81
 939 0143 04       		.byte	4
 940 0144 52       		.byte	82
 941 0145 20       		.byte	32
 942 0146 58       		.byte	88
 943 0147 10       		.byte	16
 944 0148 59       		.byte	89
 945 0149 04       		.byte	4
 946 014a 5B       		.byte	91
 947 014b 41       		.byte	65
 948 014c 62       		.byte	98
 949 014d 42       		.byte	66
 950 014e 65       		.byte	101
 951 014f 02       		.byte	2
 952 0150 6D       		.byte	109
 953 0151 51       		.byte	81
 954 0152 6E       		.byte	110
 955 0153 16       		.byte	22
 956 0154 6F       		.byte	111
ARM GAS  C:\Users\Toreckk\AppData\Local\Temp\cc4CLsqf.s 			page 31


 957 0155 14       		.byte	20
 958 0156 76       		.byte	118
 959 0157 02       		.byte	2
 960 0158 77       		.byte	119
 961 0159 02       		.byte	2
 962 015a 81       		.byte	-127
 963 015b 20       		.byte	32
 964 015c 83       		.byte	-125
 965 015d 40       		.byte	64
 966 015e 8A       		.byte	-118
 967 015f 48       		.byte	72
 968 0160 8E       		.byte	-114
 969 0161 02       		.byte	2
 970 0162 94       		.byte	-108
 971 0163 02       		.byte	2
 972 0164 95       		.byte	-107
 973 0165 41       		.byte	65
 974 0166 99       		.byte	-103
 975 0167 12       		.byte	18
 976 0168 9D       		.byte	-99
 977 0169 40       		.byte	64
 978 016a 9F       		.byte	-97
 979 016b 16       		.byte	22
 980 016c A5       		.byte	-91
 981 016d B8       		.byte	-72
 982 016e A6       		.byte	-90
 983 016f 20       		.byte	32
 984 0170 A7       		.byte	-89
 985 0171 28       		.byte	40
 986 0172 A9       		.byte	-87
 987 0173 10       		.byte	16
 988 0174 AC       		.byte	-84
 989 0175 01       		.byte	1
 990 0176 AF       		.byte	-81
 991 0177 01       		.byte	1
 992 0178 C0       		.byte	-64
 993 0179 E0       		.byte	-32
 994 017a C2       		.byte	-62
 995 017b E0       		.byte	-32
 996 017c C4       		.byte	-60
 997 017d F0       		.byte	-16
 998 017e CA       		.byte	-54
 999 017f 70       		.byte	112
 1000 0180 CC       		.byte	-52
 1001 0181 F0       		.byte	-16
 1002 0182 CE       		.byte	-50
 1003 0183 F0       		.byte	-16
 1004 0184 D0       		.byte	-48
 1005 0185 FF       		.byte	-1
 1006 0186 D2       		.byte	-46
 1007 0187 14       		.byte	20
 1008 0188 D6       		.byte	-42
 1009 0189 0F       		.byte	15
 1010 018a D8       		.byte	-40
 1011 018b 89       		.byte	-119
 1012 018c E0       		.byte	-32
 1013 018d 08       		.byte	8
ARM GAS  C:\Users\Toreckk\AppData\Local\Temp\cc4CLsqf.s 			page 32


 1014 018e E6       		.byte	-26
 1015 018f 10       		.byte	16
 1016 0190 EC       		.byte	-20
 1017 0191 08       		.byte	8
 1018 0192 56       		.byte	86
 1019 0193 10       		.byte	16
 1020 0194 62       		.byte	98
 1021 0195 02       		.byte	2
 1022 0196 66       		.byte	102
 1023 0197 01       		.byte	1
 1024 0198 82       		.byte	-126
 1025 0199 01       		.byte	1
 1026 019a 86       		.byte	-122
 1027 019b 40       		.byte	64
 1028 019c D4       		.byte	-44
 1029 019d 40       		.byte	64
 1030 019e D8       		.byte	-40
 1031 019f C0       		.byte	-64
 1032 01a0 E2       		.byte	-30
 1033 01a1 20       		.byte	32
 1034 01a2 E6       		.byte	-26
 1035 01a3 40       		.byte	64
 1036 01a4 02       		.byte	2
 1037 01a5 40       		.byte	64
 1038 01a6 0D       		.byte	13
 1039 01a7 20       		.byte	32
 1040 01a8 0E       		.byte	14
 1041 01a9 02       		.byte	2
 1042 01aa 6E       		.byte	110
 1043 01ab 80       		.byte	-128
 1044 01ac 70       		.byte	112
 1045 01ad 40       		.byte	64
 1046 01ae 81       		.byte	-127
 1047 01af 20       		.byte	32
 1048 01b0 82       		.byte	-126
 1049 01b1 01       		.byte	1
 1050 01b2 86       		.byte	-122
 1051 01b3 40       		.byte	64
 1052 01b4 8C       		.byte	-116
 1053 01b5 40       		.byte	64
 1054 01b6 A2       		.byte	-94
 1055 01b7 40       		.byte	64
 1056 01b8 AA       		.byte	-86
 1057 01b9 02       		.byte	2
 1058 01ba AE       		.byte	-82
 1059 01bb 10       		.byte	16
 1060 01bc C0       		.byte	-64
 1061 01bd 10       		.byte	16
 1062 01be C2       		.byte	-62
 1063 01bf 80       		.byte	-128
 1064 01c0 DA       		.byte	-38
 1065 01c1 80       		.byte	-128
 1066 01c2 DC       		.byte	-36
 1067 01c3 20       		.byte	32
 1068 01c4 E0       		.byte	-32
 1069 01c5 30       		.byte	48
 1070 01c6 E4       		.byte	-28
ARM GAS  C:\Users\Toreckk\AppData\Local\Temp\cc4CLsqf.s 			page 33


 1071 01c7 80       		.byte	-128
 1072 01c8 EA       		.byte	-22
 1073 01c9 C0       		.byte	-64
 1074 01ca 10       		.byte	16
 1075 01cb 02       		.byte	2
 1076 01cc 15       		.byte	21
 1077 01cd 08       		.byte	8
 1078 01ce 3A       		.byte	58
 1079 01cf 40       		.byte	64
 1080 01d0 51       		.byte	81
 1081 01d1 04       		.byte	4
 1082 01d2 C4       		.byte	-60
 1083 01d3 06       		.byte	6
 1084 01d4 CE       		.byte	-50
 1085 01d5 08       		.byte	8
 1086 01d6 D4       		.byte	-44
 1087 01d7 04       		.byte	4
 1088 01d8 54       		.byte	84
 1089 01d9 02       		.byte	2
 1090 01da 64       		.byte	100
 1091 01db 40       		.byte	64
 1092 01dc 86       		.byte	-122
 1093 01dd 40       		.byte	64
 1094 01de 98       		.byte	-104
 1095 01df 40       		.byte	64
 1096 01e0 9E       		.byte	-98
 1097 01e1 40       		.byte	64
 1098 01e2 A0       		.byte	-96
 1099 01e3 02       		.byte	2
 1100 01e4 AC       		.byte	-84
 1101 01e5 40       		.byte	64
 1102 01e6 D6       		.byte	-42
 1103 01e7 04       		.byte	4
 1104 01e8 D8       		.byte	-40
 1105 01e9 01       		.byte	1
 1106 01ea 01       		.byte	1
 1107 01eb 0A       		.byte	10
 1108 01ec 10       		.byte	16
 1109 01ed 0A       		.byte	10
 1110 01ee 0000     		.space	2
 1111              		.type	cy_cfg_addr_table.4901, %object
 1112              		.size	cy_cfg_addr_table.4901, 40
 1113              	cy_cfg_addr_table.4901:
 1114 01f0 02000F40 		.word	1074724866
 1115 01f4 1A300F40 		.word	1074737178
 1116 01f8 33310F40 		.word	1074737459
 1117 01fc 21320F40 		.word	1074737697
 1118 0200 43330F40 		.word	1074737987
 1119 0204 09400F40 		.word	1074741257
 1120 0208 13410F40 		.word	1074741523
 1121 020c 07420F40 		.word	1074741767
 1122 0210 09430F40 		.word	1074742025
 1123 0214 02600F40 		.word	1074749442
 1124              		.type	BS_UDB_0_1_1_CONFIG_VAL.4913, %object
 1125              		.size	BS_UDB_0_1_1_CONFIG_VAL.4913, 128
 1126              	BS_UDB_0_1_1_CONFIG_VAL.4913:
 1127 0218 00       		.byte	0
ARM GAS  C:\Users\Toreckk\AppData\Local\Temp\cc4CLsqf.s 			page 34


 1128 0219 00       		.byte	0
 1129 021a 01       		.byte	1
 1130 021b 00       		.byte	0
 1131 021c 00       		.byte	0
 1132 021d 00       		.byte	0
 1133 021e 00       		.byte	0
 1134 021f 00       		.byte	0
 1135 0220 20       		.byte	32
 1136 0221 00       		.byte	0
 1137 0222 C0       		.byte	-64
 1138 0223 00       		.byte	0
 1139 0224 9B       		.byte	-101
 1140 0225 00       		.byte	0
 1141 0226 00       		.byte	0
 1142 0227 40       		.byte	64
 1143 0228 04       		.byte	4
 1144 0229 00       		.byte	0
 1145 022a 1A       		.byte	26
 1146 022b 02       		.byte	2
 1147 022c 24       		.byte	36
 1148 022d 38       		.byte	56
 1149 022e C8       		.byte	-56
 1150 022f 00       		.byte	0
 1151 0230 E4       		.byte	-28
 1152 0231 00       		.byte	0
 1153 0232 10       		.byte	16
 1154 0233 40       		.byte	64
 1155 0234 02       		.byte	2
 1156 0235 0D       		.byte	13
 1157 0236 64       		.byte	100
 1158 0237 10       		.byte	16
 1159 0238 9B       		.byte	-101
 1160 0239 00       		.byte	0
 1161 023a 00       		.byte	0
 1162 023b 00       		.byte	0
 1163 023c 1B       		.byte	27
 1164 023d 10       		.byte	16
 1165 023e 80       		.byte	-128
 1166 023f 27       		.byte	39
 1167 0240 9B       		.byte	-101
 1168 0241 14       		.byte	20
 1169 0242 00       		.byte	0
 1170 0243 2B       		.byte	43
 1171 0244 9A       		.byte	-102
 1172 0245 00       		.byte	0
 1173 0246 01       		.byte	1
 1174 0247 00       		.byte	0
 1175 0248 1E       		.byte	30
 1176 0249 00       		.byte	0
 1177 024a 01       		.byte	1
 1178 024b 3C       		.byte	60
 1179 024c E0       		.byte	-32
 1180 024d 40       		.byte	64
 1181 024e 00       		.byte	0
 1182 024f 03       		.byte	3
 1183 0250 00       		.byte	0
 1184 0251 08       		.byte	8
ARM GAS  C:\Users\Toreckk\AppData\Local\Temp\cc4CLsqf.s 			page 35


 1185 0252 22       		.byte	34
 1186 0253 00       		.byte	0
 1187 0254 00       		.byte	0
 1188 0255 00       		.byte	0
 1189 0256 04       		.byte	4
 1190 0257 10       		.byte	16
 1191 0258 20       		.byte	32
 1192 0259 05       		.byte	5
 1193 025a 00       		.byte	0
 1194 025b 00       		.byte	0
 1195 025c 00       		.byte	0
 1196 025d D1       		.byte	-47
 1197 025e 02       		.byte	2
 1198 025f 00       		.byte	0
 1199 0260 07       		.byte	7
 1200 0261 FF       		.byte	-1
 1201 0262 FF       		.byte	-1
 1202 0263 FF       		.byte	-1
 1203 0264 00       		.byte	0
 1204 0265 A0       		.byte	-96
 1205 0266 00       		.byte	0
 1206 0267 04       		.byte	4
 1207 0268 18       		.byte	24
 1208 0269 00       		.byte	0
 1209 026a 80       		.byte	-128
 1210 026b 00       		.byte	0
 1211 026c 05       		.byte	5
 1212 026d 00       		.byte	0
 1213 026e 00       		.byte	0
 1214 026f 00       		.byte	0
 1215 0270 04       		.byte	4
 1216 0271 04       		.byte	4
 1217 0272 04       		.byte	4
 1218 0273 04       		.byte	4
 1219 0274 11       		.byte	17
 1220 0275 33       		.byte	51
 1221 0276 00       		.byte	0
 1222 0277 01       		.byte	1
 1223 0278 40       		.byte	64
 1224 0279 00       		.byte	0
 1225 027a C0       		.byte	-64
 1226 027b 00       		.byte	0
 1227 027c 40       		.byte	64
 1228 027d 40       		.byte	64
 1229 027e C0       		.byte	-64
 1230 027f 00       		.byte	0
 1231 0280 C0       		.byte	-64
 1232 0281 00       		.byte	0
 1233 0282 C0       		.byte	-64
 1234 0283 00       		.byte	0
 1235 0284 C0       		.byte	-64
 1236 0285 00       		.byte	0
 1237 0286 C0       		.byte	-64
 1238 0287 00       		.byte	0
 1239 0288 00       		.byte	0
 1240 0289 00       		.byte	0
 1241 028a 00       		.byte	0
ARM GAS  C:\Users\Toreckk\AppData\Local\Temp\cc4CLsqf.s 			page 36


 1242 028b 00       		.byte	0
 1243 028c 00       		.byte	0
 1244 028d 00       		.byte	0
 1245 028e 00       		.byte	0
 1246 028f 00       		.byte	0
 1247 0290 00       		.byte	0
 1248 0291 00       		.byte	0
 1249 0292 00       		.byte	0
 1250 0293 00       		.byte	0
 1251 0294 00       		.byte	0
 1252 0295 00       		.byte	0
 1253 0296 00       		.byte	0
 1254 0297 00       		.byte	0
 1255              		.type	BS_UDB_0_0_1_CONFIG_VAL.4914, %object
 1256              		.size	BS_UDB_0_0_1_CONFIG_VAL.4914, 128
 1257              	BS_UDB_0_0_1_CONFIG_VAL.4914:
 1258 0298 00       		.byte	0
 1259 0299 84       		.byte	-124
 1260 029a 00       		.byte	0
 1261 029b 00       		.byte	0
 1262 029c 88       		.byte	-120
 1263 029d 84       		.byte	-124
 1264 029e 02       		.byte	2
 1265 029f 00       		.byte	0
 1266 02a0 88       		.byte	-120
 1267 02a1 80       		.byte	-128
 1268 02a2 00       		.byte	0
 1269 02a3 04       		.byte	4
 1270 02a4 93       		.byte	-109
 1271 02a5 60       		.byte	96
 1272 02a6 24       		.byte	36
 1273 02a7 00       		.byte	0
 1274 02a8 00       		.byte	0
 1275 02a9 84       		.byte	-124
 1276 02aa 00       		.byte	0
 1277 02ab 00       		.byte	0
 1278 02ac 61       		.byte	97
 1279 02ad 01       		.byte	1
 1280 02ae 98       		.byte	-104
 1281 02af 00       		.byte	0
 1282 02b0 CC       		.byte	-52
 1283 02b1 04       		.byte	4
 1284 02b2 03       		.byte	3
 1285 02b3 00       		.byte	0
 1286 02b4 8A       		.byte	-118
 1287 02b5 07       		.byte	7
 1288 02b6 00       		.byte	0
 1289 02b7 38       		.byte	56
 1290 02b8 8A       		.byte	-118
 1291 02b9 00       		.byte	0
 1292 02ba 00       		.byte	0
 1293 02bb 00       		.byte	0
 1294 02bc 42       		.byte	66
 1295 02bd 56       		.byte	86
 1296 02be 00       		.byte	0
 1297 02bf 09       		.byte	9
 1298 02c0 02       		.byte	2
ARM GAS  C:\Users\Toreckk\AppData\Local\Temp\cc4CLsqf.s 			page 37


 1299 02c1 0A       		.byte	10
 1300 02c2 88       		.byte	-120
 1301 02c3 10       		.byte	16
 1302 02c4 88       		.byte	-120
 1303 02c5 04       		.byte	4
 1304 02c6 02       		.byte	2
 1305 02c7 80       		.byte	-128
 1306 02c8 00       		.byte	0
 1307 02c9 08       		.byte	8
 1308 02ca 0F       		.byte	15
 1309 02cb 02       		.byte	2
 1310 02cc 70       		.byte	112
 1311 02cd 7F       		.byte	127
 1312 02ce 83       		.byte	-125
 1313 02cf 80       		.byte	-128
 1314 02d0 00       		.byte	0
 1315 02d1 20       		.byte	32
 1316 02d2 28       		.byte	40
 1317 02d3 00       		.byte	0
 1318 02d4 00       		.byte	0
 1319 02d5 00       		.byte	0
 1320 02d6 00       		.byte	0
 1321 02d7 45       		.byte	69
 1322 02d8 32       		.byte	50
 1323 02d9 01       		.byte	1
 1324 02da 40       		.byte	64
 1325 02db 00       		.byte	0
 1326 02dc 05       		.byte	5
 1327 02dd 00       		.byte	0
 1328 02de 00       		.byte	0
 1329 02df 00       		.byte	0
 1330 02e0 00       		.byte	0
 1331 02e1 FF       		.byte	-1
 1332 02e2 FF       		.byte	-1
 1333 02e3 FF       		.byte	-1
 1334 02e4 02       		.byte	2
 1335 02e5 00       		.byte	0
 1336 02e6 70       		.byte	112
 1337 02e7 08       		.byte	8
 1338 02e8 04       		.byte	4
 1339 02e9 00       		.byte	0
 1340 02ea 00       		.byte	0
 1341 02eb 00       		.byte	0
 1342 02ec 00       		.byte	0
 1343 02ed 00       		.byte	0
 1344 02ee 02       		.byte	2
 1345 02ef 2C       		.byte	44
 1346 02f0 04       		.byte	4
 1347 02f1 04       		.byte	4
 1348 02f2 04       		.byte	4
 1349 02f3 04       		.byte	4
 1350 02f4 11       		.byte	17
 1351 02f5 11       		.byte	17
 1352 02f6 00       		.byte	0
 1353 02f7 01       		.byte	1
 1354 02f8 00       		.byte	0
 1355 02f9 00       		.byte	0
ARM GAS  C:\Users\Toreckk\AppData\Local\Temp\cc4CLsqf.s 			page 38


 1356 02fa C0       		.byte	-64
 1357 02fb 00       		.byte	0
 1358 02fc 40       		.byte	64
 1359 02fd 01       		.byte	1
 1360 02fe 10       		.byte	16
 1361 02ff 11       		.byte	17
 1362 0300 C0       		.byte	-64
 1363 0301 01       		.byte	1
 1364 0302 00       		.byte	0
 1365 0303 11       		.byte	17
 1366 0304 40       		.byte	64
 1367 0305 01       		.byte	1
 1368 0306 40       		.byte	64
 1369 0307 01       		.byte	1
 1370 0308 00       		.byte	0
 1371 0309 00       		.byte	0
 1372 030a 00       		.byte	0
 1373 030b 00       		.byte	0
 1374 030c 00       		.byte	0
 1375 030d 00       		.byte	0
 1376 030e 00       		.byte	0
 1377 030f 00       		.byte	0
 1378 0310 00       		.byte	0
 1379 0311 00       		.byte	0
 1380 0312 00       		.byte	0
 1381 0313 00       		.byte	0
 1382 0314 00       		.byte	0
 1383 0315 00       		.byte	0
 1384 0316 00       		.byte	0
 1385 0317 00       		.byte	0
 1386              		.text
 1387              	.Letext0:
 1388              		.file 2 "c:\\program files (x86)\\cypress\\psoc creator\\4.2\\psoc creator\\import\\gnu\\arm\\5.4.
 1389              		.file 3 "Generated_Source\\PSoC4\\cytypes.h"
 1390              		.file 4 "Generated_Source\\PSoC4\\CyLFClk.h"
 1391              		.file 5 "Generated_Source\\PSoC4\\CyLib.h"