ARM GAS  C:\Users\Toreckk\AppData\Local\Temp\ccDSYwGR.s 			page 1


   1              		.syntax unified
   2              		.cpu cortex-m0
   3              		.fpu softvfp
   4              		.eabi_attribute 20, 1
   5              		.eabi_attribute 21, 1
   6              		.eabi_attribute 23, 3
   7              		.eabi_attribute 24, 1
   8              		.eabi_attribute 25, 1
   9              		.eabi_attribute 26, 1
  10              		.eabi_attribute 30, 1
  11              		.eabi_attribute 34, 0
  12              		.eabi_attribute 18, 4
  13              		.thumb
  14              		.syntax unified
  15              		.file	"main.c"
  16              		.text
  17              	.Ltext0:
  18              		.cfi_sections	.debug_frame
  19              		.section	.text.updateSpeed,"ax",%progbits
  20              		.align	2
  21              		.global	updateSpeed
  22              		.code	16
  23              		.thumb_func
  24              		.type	updateSpeed, %function
  25              	updateSpeed:
  26              	.LFB36:
  27              		.file 1 "main.c"
   1:main.c        **** /* ========================================
   2:main.c        ****  *
   3:main.c        ****  * Copyright YOUR COMPANY, THE YEAR
   4:main.c        ****  * All Rights Reserved
   5:main.c        ****  * UNPUBLISHED, LICENSED SOFTWARE.
   6:main.c        ****  *
   7:main.c        ****  * CONFIDENTIAL AND PROPRIETARY INFORMATION
   8:main.c        ****  * WHICH IS THE PROPERTY OF your company.
   9:main.c        ****  *
  10:main.c        ****  * ========================================
  11:main.c        **** */
  12:main.c        **** #include "project.h"
  13:main.c        **** #include <stdlib.h>
  14:main.c        **** #include <stdio.h>
  15:main.c        **** 
  16:main.c        **** int8 speedLeft = 0;
  17:main.c        **** int8 speedRight = 0;
  18:main.c        **** 
  19:main.c        **** typedef enum motor {
  20:main.c        ****     LEFT_WHEEL,
  21:main.c        ****     RIGHT_WHEEL
  22:main.c        **** } motor;
  23:main.c        **** /*
  24:main.c        **** If there is a connection then it takes the right and left speed
  25:main.c        **** and stores it in the GATT database under the correct characteristic
  26:main.c        **** */
  27:main.c        **** void updateSpeed(){
  28              		.loc 1 27 0
  29              		.cfi_startproc
  30              		@ args = 0, pretend = 0, frame = 16
ARM GAS  C:\Users\Toreckk\AppData\Local\Temp\ccDSYwGR.s 			page 2


  31              		@ frame_needed = 0, uses_anonymous_args = 0
  32 0000 F0B5     		push	{r4, r5, r6, r7, lr}
  33              		.cfi_def_cfa_offset 20
  34              		.cfi_offset 4, -20
  35              		.cfi_offset 5, -16
  36              		.cfi_offset 6, -12
  37              		.cfi_offset 7, -8
  38              		.cfi_offset 14, -4
  39 0002 85B0     		sub	sp, sp, #20
  40              		.cfi_def_cfa_offset 40
  28:main.c        ****     if(CyBle_GetState() != CYBLE_STATE_CONNECTED)
  41              		.loc 1 28 0
  42 0004 0F4B     		ldr	r3, .L4
  43 0006 1B78     		ldrb	r3, [r3]
  44 0008 022B     		cmp	r3, #2
  45 000a 18D1     		bne	.L1
  29:main.c        ****         return;
  30:main.c        ****     CYBLE_GATTS_HANDLE_VALUE_NTF_T tempHandle;
  31:main.c        ****     
  32:main.c        ****     tempHandle.attrHandle = CYBLE_MOTOR_MOTORLEFT_CHAR_HANDLE;
  46              		.loc 1 32 0
  47 000c 01AC     		add	r4, sp, #4
  48 000e 1033     		adds	r3, r3, #16
  49 0010 2381     		strh	r3, [r4, #8]
  33:main.c        ****     tempHandle.value.val = (uint8 *)&speedLeft;
  50              		.loc 1 33 0
  51 0012 0D4D     		ldr	r5, .L4+4
  52 0014 0195     		str	r5, [sp, #4]
  34:main.c        ****     tempHandle.value.len = 1;
  53              		.loc 1 34 0
  54 0016 0127     		movs	r7, #1
  55 0018 A780     		strh	r7, [r4, #4]
  35:main.c        ****     CyBle_GattsWriteAttributeValue(&tempHandle, 0, &cyBle_connHandle, CYBLE_GATT_DB_LOCALLY_INITIAT
  56              		.loc 1 35 0
  57 001a 0C4E     		ldr	r6, .L4+8
  58 001c 0023     		movs	r3, #0
  59 001e 3200     		movs	r2, r6
  60 0020 0021     		movs	r1, #0
  61 0022 2000     		movs	r0, r4
  62 0024 FFF7FEFF 		bl	CyBle_GattsWriteAttributeValue
  63              	.LVL0:
  36:main.c        ****     
  37:main.c        ****     tempHandle.attrHandle = CYBLE_MOTOR_MOTORRIGHT_CHAR_HANDLE;
  64              		.loc 1 37 0
  65 0028 1523     		movs	r3, #21
  66 002a 2381     		strh	r3, [r4, #8]
  38:main.c        ****     tempHandle.value.val = (uint8 *)&speedRight;
  67              		.loc 1 38 0
  68 002c 0135     		adds	r5, r5, #1
  69 002e 0195     		str	r5, [sp, #4]
  39:main.c        ****     tempHandle.value.len = 1;
  70              		.loc 1 39 0
  71 0030 A780     		strh	r7, [r4, #4]
  40:main.c        ****     CyBle_GattsWriteAttributeValue(&tempHandle, 0, &cyBle_connHandle, CYBLE_GATT_DB_LOCALLY_INITIAT
  72              		.loc 1 40 0
  73 0032 0023     		movs	r3, #0
  74 0034 3200     		movs	r2, r6
ARM GAS  C:\Users\Toreckk\AppData\Local\Temp\ccDSYwGR.s 			page 3


  75 0036 0021     		movs	r1, #0
  76 0038 2000     		movs	r0, r4
  77 003a FFF7FEFF 		bl	CyBle_GattsWriteAttributeValue
  78              	.LVL1:
  79              	.L1:
  41:main.c        ****     
  42:main.c        **** }
  80              		.loc 1 42 0
  81 003e 05B0     		add	sp, sp, #20
  82              		@ sp needed
  83 0040 F0BD     		pop	{r4, r5, r6, r7, pc}
  84              	.L5:
  85 0042 C046     		.align	2
  86              	.L4:
  87 0044 00000000 		.word	cyBle_state
  88 0048 00000000 		.word	.LANCHOR0
  89 004c 00000000 		.word	cyBle_connHandle
  90              		.cfi_endproc
  91              	.LFE36:
  92              		.size	updateSpeed, .-updateSpeed
  93              		.section	.text.setSpeed,"ax",%progbits
  94              		.align	2
  95              		.global	setSpeed
  96              		.code	16
  97              		.thumb_func
  98              		.type	setSpeed, %function
  99              	setSpeed:
 100              	.LFB37:
  43:main.c        **** /*
  44:main.c        **** Called by the BLE stack handle when there is a write in the MotorLeft or MotorRight
  45:main.c        **** characteristic
  46:main.c        **** */
  47:main.c        **** void setSpeed(motor m, int speed){
 101              		.loc 1 47 0
 102              		.cfi_startproc
 103              		@ args = 0, pretend = 0, frame = 0
 104              		@ frame_needed = 0, uses_anonymous_args = 0
 105              	.LVL2:
 106 0000 70B5     		push	{r4, r5, r6, lr}
 107              		.cfi_def_cfa_offset 16
 108              		.cfi_offset 4, -16
 109              		.cfi_offset 5, -12
 110              		.cfi_offset 6, -8
 111              		.cfi_offset 14, -4
 112 0002 0500     		movs	r5, r0
 113 0004 0C00     		movs	r4, r1
  48:main.c        ****     
  49:main.c        ****     int dir;
  50:main.c        **** 
  51:main.c        ****     //printf("%d\n",speed);
  52:main.c        ****     if(speed>=100) //100% -> speed limit
 114              		.loc 1 52 0
 115 0006 6329     		cmp	r1, #99
 116 0008 00DD     		ble	.L7
  53:main.c        ****         speed = 100;
 117              		.loc 1 53 0
 118 000a 6424     		movs	r4, #100
ARM GAS  C:\Users\Toreckk\AppData\Local\Temp\ccDSYwGR.s 			page 4


 119              	.L7:
 120              	.LVL3:
  54:main.c        ****     if(speed<=-100)
 121              		.loc 1 54 0
 122 000c 2300     		movs	r3, r4
 123 000e 6333     		adds	r3, r3, #99
 124 0010 01DA     		bge	.L8
  55:main.c        ****         speed = -100;
 125              		.loc 1 55 0
 126 0012 6424     		movs	r4, #100
 127              	.LVL4:
 128 0014 6442     		rsbs	r4, r4, #0
 129              	.L8:
 130              	.LVL5:
  56:main.c        ****     
  57:main.c        ****     if(speed>=0)
  58:main.c        ****         dir = 1;
  59:main.c        ****     else
  60:main.c        ****         dir = 0;
  61:main.c        ****     
  62:main.c        ****     IN1_Write(1);
 131              		.loc 1 62 0
 132 0016 0120     		movs	r0, #1
 133              	.LVL6:
 134 0018 FFF7FEFF 		bl	IN1_Write
 135              	.LVL7:
  63:main.c        ****     IN2_Write(0);
 136              		.loc 1 63 0
 137 001c 0020     		movs	r0, #0
 138 001e FFF7FEFF 		bl	IN2_Write
 139              	.LVL8:
  64:main.c        ****     IN3_Write(1);
 140              		.loc 1 64 0
 141 0022 0120     		movs	r0, #1
 142 0024 FFF7FEFF 		bl	IN3_Write
 143              	.LVL9:
  65:main.c        ****     IN4_Write(0);
 144              		.loc 1 65 0
 145 0028 0020     		movs	r0, #0
 146 002a FFF7FEFF 		bl	IN4_Write
 147              	.LVL10:
  66:main.c        ****     switch(m){
 148              		.loc 1 66 0
 149 002e 002D     		cmp	r5, #0
 150 0030 02D0     		beq	.L10
 151 0032 012D     		cmp	r5, #1
 152 0034 06D0     		beq	.L11
 153 0036 0AE0     		b	.L9
 154              	.L10:
  67:main.c        ****         case LEFT_WHEEL:
  68:main.c        ****             LEFT_MOTOR_WriteCompare(speed);
 155              		.loc 1 68 0
 156 0038 E0B2     		uxtb	r0, r4
 157 003a FFF7FEFF 		bl	LEFT_MOTOR_WriteCompare
 158              	.LVL11:
  69:main.c        ****             speedLeft = speed;
 159              		.loc 1 69 0
ARM GAS  C:\Users\Toreckk\AppData\Local\Temp\ccDSYwGR.s 			page 5


 160 003e 054B     		ldr	r3, .L14
 161 0040 1C70     		strb	r4, [r3]
  70:main.c        ****         break;
 162              		.loc 1 70 0
 163 0042 04E0     		b	.L9
 164              	.L11:
  71:main.c        ****         case RIGHT_WHEEL:
  72:main.c        ****             RIGHT_MOTOR_WriteCompare(speed);
 165              		.loc 1 72 0
 166 0044 E0B2     		uxtb	r0, r4
 167 0046 FFF7FEFF 		bl	RIGHT_MOTOR_WriteCompare
 168              	.LVL12:
  73:main.c        ****             speedRight = speed;
 169              		.loc 1 73 0
 170 004a 024B     		ldr	r3, .L14
 171 004c 5C70     		strb	r4, [r3, #1]
 172              	.L9:
  74:main.c        ****         break;
  75:main.c        ****     }
  76:main.c        ****     updateSpeed();
 173              		.loc 1 76 0
 174 004e FFF7FEFF 		bl	updateSpeed
 175              	.LVL13:
  77:main.c        **** }
 176              		.loc 1 77 0
 177              		@ sp needed
 178              	.LVL14:
 179 0052 70BD     		pop	{r4, r5, r6, pc}
 180              	.L15:
 181              		.align	2
 182              	.L14:
 183 0054 00000000 		.word	.LANCHOR0
 184              		.cfi_endproc
 185              	.LFE37:
 186              		.size	setSpeed, .-setSpeed
 187              		.section	.text.BleCallBack,"ax",%progbits
 188              		.align	2
 189              		.global	BleCallBack
 190              		.code	16
 191              		.thumb_func
 192              		.type	BleCallBack, %function
 193              	BleCallBack:
 194              	.LFB38:
  78:main.c        **** 
  79:main.c        **** void BleCallBack(uint32 event, void* eventParam){
 195              		.loc 1 79 0
 196              		.cfi_startproc
 197              		@ args = 0, pretend = 0, frame = 0
 198              		@ frame_needed = 0, uses_anonymous_args = 0
 199              	.LVL15:
 200 0000 10B5     		push	{r4, lr}
 201              		.cfi_def_cfa_offset 8
 202              		.cfi_offset 4, -8
 203              		.cfi_offset 14, -4
 204 0002 0C00     		movs	r4, r1
  80:main.c        ****     
  81:main.c        ****     CYBLE_GATTS_WRITE_REQ_PARAM_T *wrReqParam;
ARM GAS  C:\Users\Toreckk\AppData\Local\Temp\ccDSYwGR.s 			page 6


  82:main.c        ****     
  83:main.c        ****     switch(event)
 205              		.loc 1 83 0
 206 0004 2828     		cmp	r0, #40
 207 0006 0AD0     		beq	.L18
 208 0008 04D8     		bhi	.L19
 209 000a 0128     		cmp	r0, #1
 210 000c 07D0     		beq	.L18
 211 000e 2728     		cmp	r0, #39
 212 0010 0BD0     		beq	.L20
 213 0012 28E0     		b	.L16
 214              	.L19:
 215 0014 4128     		cmp	r0, #65
 216 0016 08D0     		beq	.L20
 217 0018 4C28     		cmp	r0, #76
 218 001a 0BD0     		beq	.L21
 219 001c 23E0     		b	.L16
 220              	.L18:
  84:main.c        ****     {
  85:main.c        ****         case CYBLE_EVT_STACK_ON:
  86:main.c        ****         case CYBLE_EVT_GAP_DEVICE_DISCONNECTED:
  87:main.c        ****             CyBle_GappStartAdvertisement(CYBLE_ADVERTISING_FAST);
 221              		.loc 1 87 0
 222 001e 0020     		movs	r0, #0
 223              	.LVL16:
 224 0020 FFF7FEFF 		bl	CyBle_GappStartAdvertisement
 225              	.LVL17:
  88:main.c        ****             LED_PWM_Start();
 226              		.loc 1 88 0
 227 0024 FFF7FEFF 		bl	LED_PWM_Start
 228              	.LVL18:
  89:main.c        ****         break;
 229              		.loc 1 89 0
 230 0028 1DE0     		b	.L16
 231              	.LVL19:
 232              	.L20:
  90:main.c        ****             
  91:main.c        ****         case CYBLE_EVT_GAP_DEVICE_CONNECTED:
  92:main.c        ****         case CYBLE_EVT_GATT_CONNECT_IND:
  93:main.c        ****             updateSpeed();
 233              		.loc 1 93 0
 234 002a FFF7FEFF 		bl	updateSpeed
 235              	.LVL20:
  94:main.c        ****             LED_PWM_Stop();
 236              		.loc 1 94 0
 237 002e FFF7FEFF 		bl	LED_PWM_Stop
 238              	.LVL21:
  95:main.c        ****         break;
 239              		.loc 1 95 0
 240 0032 18E0     		b	.L16
 241              	.LVL22:
 242              	.L21:
  96:main.c        ****             
  97:main.c        ****         case CYBLE_EVT_GATTS_WRITE_REQ:
  98:main.c        ****             wrReqParam = (CYBLE_GATTS_WRITE_REQ_PARAM_T *) eventParam;
  99:main.c        ****             
 100:main.c        ****             if(wrReqParam->handleValPair.attrHandle == CYBLE_MOTOR_MOTORLEFT_CHAR_HANDLE)
ARM GAS  C:\Users\Toreckk\AppData\Local\Temp\ccDSYwGR.s 			page 7


 243              		.loc 1 100 0
 244 0034 8B89     		ldrh	r3, [r1, #12]
 245 0036 122B     		cmp	r3, #18
 246 0038 05D1     		bne	.L22
 101:main.c        ****                 setSpeed(LEFT_WHEEL, (int8)wrReqParam->handleValPair.value.val[0]);
 247              		.loc 1 101 0
 248 003a 4B68     		ldr	r3, [r1, #4]
 249 003c 0021     		movs	r1, #0
 250              	.LVL23:
 251 003e 5956     		ldrsb	r1, [r3, r1]
 252 0040 0020     		movs	r0, #0
 253              	.LVL24:
 254 0042 FFF7FEFF 		bl	setSpeed
 255              	.LVL25:
 256              	.L22:
 102:main.c        ****                 
 103:main.c        **** 
 104:main.c        ****             if(wrReqParam->handleValPair.attrHandle == CYBLE_MOTOR_MOTORRIGHT_CHAR_HANDLE)
 257              		.loc 1 104 0
 258 0046 A389     		ldrh	r3, [r4, #12]
 259 0048 152B     		cmp	r3, #21
 260 004a 05D1     		bne	.L23
 105:main.c        ****                 setSpeed(RIGHT_WHEEL, (int8)wrReqParam->handleValPair.value.val[0]);               
 261              		.loc 1 105 0
 262 004c 6368     		ldr	r3, [r4, #4]
 263 004e 0021     		movs	r1, #0
 264 0050 5956     		ldrsb	r1, [r3, r1]
 265 0052 0120     		movs	r0, #1
 266 0054 FFF7FEFF 		bl	setSpeed
 267              	.LVL26:
 268              	.L23:
 106:main.c        ****             
 107:main.c        ****             CyBle_GattsWriteRsp(cyBle_connHandle);
 269              		.loc 1 107 0
 270 0058 034A     		ldr	r2, .L24
 271 005a 1378     		ldrb	r3, [r2]
 272 005c 5078     		ldrb	r0, [r2, #1]
 273 005e 0002     		lsls	r0, r0, #8
 274 0060 1843     		orrs	r0, r3
 275 0062 FFF7FEFF 		bl	CyBle_GattsWriteRsp
 276              	.LVL27:
 277              	.L16:
 108:main.c        ****         break;
 109:main.c        ****             
 110:main.c        ****         default:
 111:main.c        ****         break;
 112:main.c        ****     }
 113:main.c        ****     
 114:main.c        **** }
 278              		.loc 1 114 0
 279              		@ sp needed
 280              	.LVL28:
 281 0066 10BD     		pop	{r4, pc}
 282              	.L25:
 283              		.align	2
 284              	.L24:
 285 0068 00000000 		.word	cyBle_connHandle
ARM GAS  C:\Users\Toreckk\AppData\Local\Temp\ccDSYwGR.s 			page 8


 286              		.cfi_endproc
 287              	.LFE38:
 288              		.size	BleCallBack, .-BleCallBack
 289              		.section	.text.main,"ax",%progbits
 290              		.align	2
 291              		.global	main
 292              		.code	16
 293              		.thumb_func
 294              		.type	main, %function
 295              	main:
 296              	.LFB39:
 115:main.c        **** 
 116:main.c        **** int main(void)
 117:main.c        **** {
 297              		.loc 1 117 0
 298              		.cfi_startproc
 299              		@ Volatile: function does not return.
 300              		@ args = 0, pretend = 0, frame = 0
 301              		@ frame_needed = 0, uses_anonymous_args = 0
 302 0000 10B5     		push	{r4, lr}
 303              		.cfi_def_cfa_offset 8
 304              		.cfi_offset 4, -8
 305              		.cfi_offset 14, -4
 118:main.c        ****     CyGlobalIntEnable; /* Enable global interrupts. */
 306              		.loc 1 118 0
 307              		.syntax divided
 308              	@ 118 "main.c" 1
 309 0002 62B6     		CPSIE   i
 310              	@ 0 "" 2
 119:main.c        **** 
 120:main.c        ****     //Start the motor's PWM
 121:main.c        ****     LEFT_MOTOR_Start();
 311              		.loc 1 121 0
 312              		.thumb
 313              		.syntax unified
 314 0004 FFF7FEFF 		bl	LEFT_MOTOR_Start
 315              	.LVL29:
 122:main.c        ****     RIGHT_MOTOR_Start();
 316              		.loc 1 122 0
 317 0008 FFF7FEFF 		bl	RIGHT_MOTOR_Start
 318              	.LVL30:
 123:main.c        ****     
 124:main.c        ****     //Initialize speed of each wheel to 0
 125:main.c        ****     //setSpeed(LEFT_WHEEL, 0);
 126:main.c        ****     //setSpeed(RIGHT_WHEEL, 0);
 127:main.c        ****     IN1_Write(1);
 319              		.loc 1 127 0
 320 000c 0120     		movs	r0, #1
 321 000e FFF7FEFF 		bl	IN1_Write
 322              	.LVL31:
 128:main.c        ****     IN2_Write(0);
 323              		.loc 1 128 0
 324 0012 0020     		movs	r0, #0
 325 0014 FFF7FEFF 		bl	IN2_Write
 326              	.LVL32:
 129:main.c        ****     IN3_Write(1);
 327              		.loc 1 129 0
ARM GAS  C:\Users\Toreckk\AppData\Local\Temp\ccDSYwGR.s 			page 9


 328 0018 0120     		movs	r0, #1
 329 001a FFF7FEFF 		bl	IN3_Write
 330              	.LVL33:
 130:main.c        ****     IN4_Write(0);
 331              		.loc 1 130 0
 332 001e 0020     		movs	r0, #0
 333 0020 FFF7FEFF 		bl	IN4_Write
 334              	.LVL34:
 131:main.c        ****     
 132:main.c        ****     LEFT_MOTOR_WriteCompare(100);
 335              		.loc 1 132 0
 336 0024 6420     		movs	r0, #100
 337 0026 FFF7FEFF 		bl	LEFT_MOTOR_WriteCompare
 338              	.LVL35:
 133:main.c        ****     RIGHT_MOTOR_WriteCompare(100);
 339              		.loc 1 133 0
 340 002a 6420     		movs	r0, #100
 341 002c FFF7FEFF 		bl	RIGHT_MOTOR_WriteCompare
 342              	.LVL36:
 134:main.c        ****     
 135:main.c        ****     LED_PWM_Start();
 343              		.loc 1 135 0
 344 0030 FFF7FEFF 		bl	LED_PWM_Start
 345              	.LVL37:
 346              	.L27:
 347 0034 FEE7     		b	.L27
 348              		.cfi_endproc
 349              	.LFE39:
 350              		.size	main, .-main
 351              		.global	speedRight
 352              		.global	speedLeft
 353 0036 C046     		.bss
 354              		.set	.LANCHOR0,. + 0
 355              		.type	speedLeft, %object
 356              		.size	speedLeft, 1
 357              	speedLeft:
 358 0000 00       		.space	1
 359              		.type	speedRight, %object
 360              		.size	speedRight, 1
 361              	speedRight:
 362 0001 00       		.space	1
 363              		.text
 364              	.Letext0:
 365              		.file 2 "Generated_Source\\PSoC4/cytypes.h"
 366              		.file 3 "Generated_Source\\PSoC4/BLE_StackGatt.h"
 367              		.file 4 "Generated_Source\\PSoC4/BLE_StackGattServer.h"
 368              		.file 5 "Generated_Source\\PSoC4/BLE_Stack.h"
 369              		.file 6 "Generated_Source\\PSoC4/BLE_eventHandler.h"
 370              		.file 7 "Generated_Source\\PSoC4/BLE_StackGattDb.h"
 371              		.file 8 "Generated_Source\\PSoC4/IN1.h"
 372              		.file 9 "Generated_Source\\PSoC4/IN2.h"
 373              		.file 10 "Generated_Source\\PSoC4/IN3.h"
 374              		.file 11 "Generated_Source\\PSoC4/IN4.h"
 375              		.file 12 "Generated_Source\\PSoC4/LEFT_MOTOR.h"
 376              		.file 13 "Generated_Source\\PSoC4/RIGHT_MOTOR.h"
 377              		.file 14 "Generated_Source\\PSoC4/BLE.h"
 378              		.file 15 "Generated_Source\\PSoC4/LED_PWM.h"
ARM GAS  C:\Users\Toreckk\AppData\Local\Temp\ccDSYwGR.s 			page 10

